(dp0
VCS 6250
p1
(dp2
S'Reading'
p3
(lp4
S'Required Course Readings'
p5
aS'You may, but are not required to read the papers listed in the "Instructor Notes" section under selected videos, and compiled in the '
p6
aS'Web Resources wiki page'
p7
asS'Name'
p8
S'Computer Networks'
p9
sS'Grading'
p10
(lp11
S'Grading'
p12
aS'Grades will be posted through T-Square. Late assignments will not be accepted. Assignments must be submitted by 11:55 pm (PST) on the due date posted in the schedule. Plan accordingly with your schedule as the second half of the assignments will be more time-intensive.'
p13
asS'Technical'
p14
(lp15
S'Minimum Technical Requirements'
p16
aS'Operating system: - PC: Windows XP or higher with latest updates installed - Mac: OS X 10.6 or higher with latest updates installed - Linux: Any recent distribution that has the supported browsers installed'
p17
asS'Overview'
p18
(lp19
S'Overview'
p20
aS'This course is divided into 3 parts, which will be taken in order:'
p21
aS'Part 2: Resource Control & Content Distribution'
p22
asS'Number'
p23
S'CS 6250'
p24
sS'Prerequisites'
p25
(lp26
S'Prerequisites'
p27
aS'4. Can you get files off of a virtual machine without a mapped directory?'
p28
asS'Instructor'
p29
S"[u'Nick Feamster']"
p30
ssVCS 6505
p31
(dp32
g3
(lp33
S'Recommended Course Readings'
p34
aS'Michael Sipser, '
p35
aS'Introduction to the Theory of Computation'
p36
asg8
S'Computability, Complexity & Algorithms'
p37
sg10
(lp38
S'Grading'
p39
asg14
(lp40
S'Minimum Technical Requirements'
p41
aS'Operating system: - PC: Windows XP or higher with latest updates installed - Mac: OS X 10.6 or higher with latest updates installed - Linux: Any recent distribution that has the supported browsers installed'
p42
asg18
(lp43
S'Overview'
p44
aS'To view an outline of the course, you may download the '
p45
aS'Syllabus'
p46
asg23
S'CS 6505'
p47
sg25
(lp48
S'Prerequisites'
p49
aS'Can you give an O(n log n) algorithm for sorting n numbers?'
p50
aS'Given an nxn matrix A and an n-dimensional vector b, can you give a polynomial-time algorithm to find a vector x such that Ax=b?'
p51
aS'"Discrete Mathematics and Its Applications"'
p52
asg29
S"[u'Charlie Brubaker']"
p53
ssVCS 8803 O07 Special Topics
p54
(dp55
g3
(lp56
S'Required Course Readings'
p57
aS'Suggested readings include '
p58
aS'Reinforcement Learning'
p59
asg8
S'Cyber-Physical Systems Security'
p60
sg10
(lp61
S'Grading'
p62
asg14
(lp63
S'Minimum Technical Requirements'
p64
asg18
(lp65
S'Overview'
p66
aS'1. Intro to the course'
p67
aS'3. Background on Networking, Information Security, and Control Theory'
p68
aS'5. Industrial Cyber Security History and Threats'
p69
aS'7. Industrial Network Design and Architecture'
p70
aS'11. Securing Industrial Control Systems'
p71
aS'13. Privacy in Cyber-Physical Systems'
p72
asg23
S'CS 8803 O07 Special Topics'
p73
sg25
(lp74
S'Prerequisites'
p75
asg29
S"[u'Raheem Beyah']"
p76
ssVCS 8803-002
p77
(dp78
g3
(lp79
S'Required Course Readings'
p80
aS'<a href="http://www.amazon.com/Operating-Concepts-Essentials-Abraham-Silberschatz/dp/1118804929/ref=sr_1_1?s=books&amp;ie=UTF8&amp;qid=1415311059&amp;sr=1-1&amp;keywords=operating+system+concepts+essentials" target="_blank">Operating System Concepts: Essentials</a>'
p81
aS'<a href="http://www.amazon.com/Modern-Operating-Systems-4th-Edition/dp/013359162X/ref=dp_ob_title_bk" target="_blank">Modern Operating Systems</a>'
p82
aS'<a href="http://pages.cs.wisc.edu/~remzi/OSTEP/" target="_blank">Operating Systems: Three Easy Pieces</a>'
p83
aS'Virtual Machine -You will be provided a virtual machine (VM) useful for performing class assignments and projects -For the projects, the supplied resources are identical to those used to test your submissions -Details for downloading and installing the VM can be found on the Class Resources Page'
p84
asg8
S'Introduction to Operating Systems'
p85
sg10
(lp86
S'Grading'
p87
aS'Programming Assignments (Projects) - 40%'
p88
asg14
(lp89
S'Minimum Technical Requirements'
p90
aS'Cloud Computing - Amazing Web Service (AWS) or MS Azure'
p91
aS'Linux - Any recent distribution that has supported browsers installed'
p92
asg18
(lp93
S'Overview'
p94
asg23
S'CS 8803-002'
p95
sg25
(lp96
S'Prerequisites'
p97
asg29
S"[u'Ada Gavrilovska']"
p98
ssVCS 6601
p99
(dp100
g3
(lp101
S'Required Course Readings'
p102
aS'CourseSmart edition'
p103
asg8
S'Artificial Intelligence'
p104
sg10
(lp105
S'Grading'
p106
aS'Quizzes - There will be a number of quizzes available for you to complete to test your knowledge of the material taught in the course. However, quizzes are for your use only and will not be included in the course grade.'
p107
asg14
(lp108
S'Minimum Technical Requirements'
p109
asg18
(lp110
S'Overview'
p111
asg23
S'CS 6601'
p112
sg25
(lp113
S'Prerequisites'
p114
aS'Have you taken several classes that required intensive programming?'
p115
aS'Are you prepared to spend at least 9 hours a week on this class?'
p116
asg29
S"[u'Thad Starner']"
p117
ssVCS 6460
p118
(dp119
g3
(lp120
S'Required Course Readings'
p121
asg8
S'Educational Technology'
p122
sg10
(lp123
S'Grading'
p124
aS'Each student must successfully complete and submit all course exercises.'
p125
aS'Each student must join and actively participate in the assigned team project as a programmer, designer or project manager.'
p126
asg14
(lp127
S'Minimum Technical Requirements'
p128
aS'Operating system: - PC: Windows XP or higher with latest updates installed - Mac: OS X 10.6 or higher with latest updates installed - Linux: Any recent distribution that has the supported browsers installed'
p129
asg18
(lp130
S'Overview'
p131
aS'Just as the on-campus course has no lectures, so also the online course will not be lecture-based; instead, the course will be based on a curated library of materials, such as academic publications, media articles, existing tools, past projects, original interviews with experts in the field. Students in the class will navigate and investigate the topics most pertinent to their interests and project ideas, as well as contribute to the library for future classes. As part of this, TAs, acting more as mentors, will work closely with small groups of students to develop their understanding and ideas, scope their plans, and deliver a final project.'
p132
asg23
S'CS 6460'
p133
sg25
(lp134
S'Prerequisites'
p135
aS'Are you comfortable with a class where participation is assessed directly?'
p136
aS'Are you comfortable either in a group on a project, or taking on a significantly-sized project individually?'
p137
aS'Are you comfortable with a very open-ended class, where learning is largely student-driven?'
p138
asg29
S"[u'David Joyner']"
p139
ssVCS 8803-003 Special Topics
p140
(dp141
g3
(lp142
S'Required Course Readings'
p143
aS'Suggested readings include '
p144
aS'Reinforcement Learning'
p145
asg8
S'Reinforcement Learning'
p146
sg10
(lp147
S'Grading'
p148
asg14
(lp149
S'Minimum Technical Requirements'
p150
aS'Operating system: - PC: Windows XP or higher with latest updates installed - Mac: OS X 10.6 or higher with latest updates installed - Linux: Any recent distribution that has the supported browsers installed'
p151
asg18
(lp152
S'Overview'
p153
aS'Topics include Markov decision processes, stochastic and repeated games, partially observable Markov decision processes, and reinforcement learning. Of particular interest will be issues of generalization, exploration, and representation. Students will replicate a result in a published paper in the area.'
p154
asg23
S'CS 8803-003 Special Topics'
p155
sg25
(lp156
S'Prerequisites'
p157
aS'Students should be familiar with object-oriented programming, preferably Java.'
p158
asg29
S"[u'Charles Isbell']"
p159
ssVCS 8803
p160
(dp161
g3
(lp162
S'Required Course Readings'
p163
aS'Probabilistic Robotics'
p164
asg8
S'Artificial Intelligence for Robotics'
p165
sg10
(lp166
S'Grading'
p167
aS'6 Problem Sets:'
p168
aS'<strong>Project 1: Runaway Robot, Parts 1-4</strong>'
p169
aS'<strong>Project 2: Final Project</strong>'
p170
aS'<strong>Extra Credit</strong>'
p171
aS'<strong>No late work accepted.</strong>'
p172
asg14
(lp173
S'Minimum Technical Requirements'
p174
aS'Cloud Computing - Amazing Web Service (AWS) or MS Azure'
p175
aS'Windows XP or higher with latest updates.'
p176
aS'Linux - Any recent distribution that has supported browsers installed'
p177
asg18
(lp178
S'Overview'
p179
aS'At the end of the course, students will leverage what they have learned by solving the problem of a runaway robot that they must chase and hunt down! Students will also be expected to complete six problem sets, and deliver a final project that applies one of the methods learned in this class on a dataset of their choosing.'
p180
asg23
S'CS 8803'
p181
sg25
(lp182
S'Prerequisites'
p183
aS'Do you have a strong understanding of linear algebra (undergraduate-level)?'
p184
asg29
S"[u'Sebastian\\xa0Thrun']"
p185
ssVCS 6310
p186
(dp187
g3
(lp188
S'Required Course Readings'
p189
asg8
S'Software Architecture and Design'
p190
sg10
(lp191
S'Grading'
p192
asg14
(lp193
S'Minimum Technical Requirements'
p194
aS'In addition, you are expected to have screen and voice capture software available to you for submitting demo materials. The class resources page provides suggested tools.'
p195
aS'Operating system: PC: Windows XP or higher with latest updates installed Mac: OS X 10.6 or higher with latest updates installed Linux: Any recent distribution that has the supported browsers installed'
p196
asg18
(lp197
S'Overview'
p198
aS'Select and use appropriate architectural styles'
p199
aS'Express the specifications and design of an application using UML'
p200
aS'To undertake this course you should either have successfully taken an undergraduate software engineering course or CS 6300. Alternatively, if you have significant experience actually developing industrial software, you should be fine. The course makes use of Java and assumes knowledge of object-oriented techniques. There are videos available on the class resources page to refresh your knowledge of these two topics.'
p201
aS'3. Are you familiar with at least one object oriented programming language, preferably Java?'
p202
aS'5. Do you have enough flexibility to work with a team that meets (remotely) on a regular basis?'
p203
asg23
S'CS 6310'
p204
sg25
(lp205
S'Prerequisites'
p206
aS'If you answer "no" to any of the following questions, it may be beneficial to refresh your knowledge of this material prior to taking CS 6300:'
p207
aS'Are you familiar with basic software engineering concepts, such as requirements, software design, and software testing?'
p208
aS'Are you comfortable, or even excited about, learning new technologies and working with software tools?'
p209
asg29
S"[u'Spencer Rugaber']"
p210
ssVCS 6210
p211
(dp212
g3
(lp213
S'Required Course Readings'
p214
asg8
S'Advanced Operating Systems'
p215
sg10
(lp216
S'Grading'
p217
aS'Midterm - 25%'
p218
aS'Projects (4 projects worth 10% each): User-level threads, Barrier Synchronization, Proxy Server Web Cache, and Recoverable Virtual Memory'
p219
asg14
(lp220
S'Minimum Technical Requirements'
p221
aS'Operating system: - PC: Windows XP or higher with latest updates installed - Mac: OS X 10.6 or higher with latest updates installed - Linux: Any recent distribution that has the supported browsers installed'
p222
aS'Google Hangouts on Air are scheduled for 3 p.m. on Wednesdays. A TA will also hold office hours via the blue chatbox on the Udacity site.'
p223
asg18
(lp224
S'Overview'
p225
aS'Distributed systems, their communication mechanisms, distributed objects and middleware'
p226
aS'System support for Internet-scale computing'
p227
asg23
S'CS 6210'
p228
sg25
(lp229
S'Prerequisites'
p230
aS'CS 6210 Prerequisites and Concepts list'
p231
asg29
S"[u'Kishore Ramachandran']"
p232
ssVCS 7637
p233
(dp234
g3
(lp235
S'Required Course Readings'
p236
aS'Available online'
p237
asg8
S'Knowledge-Based Artificial Intelligence'
p238
sg10
(lp239
S'Grading'
p240
aS'Quizzes - There will be a number of quizzes available for you to complete to test your knowledge of the material taught in the course. However, quizzes are for your use only and will not be included in the course grade.'
p241
asg14
(lp242
S'Minimum Technical Requirements'
p243
aS'Browser and connection speed: An up-to-date version of Chrome or Firefox is strongly recommended. We also support Internet Explorer 9 and the desktop versions of Internet Explorer 10 and above (not the metro versions). 2+ Mbps recommended; at minimum 0.768 Mbps download speed'
p244
asg18
(lp245
S'Overview'
p246
asg23
S'CS 7637'
p247
sg25
(lp248
S'Prerequisites'
p249
aS'Are you familiar with concepts of data structures and object-oriented programming, such as inheritance and polymorphism?'
p250
aS'Are you confident with either Java or Python?'
p251
asg29
S"[u'Ashok Goel']"
p252
ssVCSE 6242
p253
(dp254
g3
(lp255
S'Required Course Readings'
p256
aS'Introduction to Parallel Computing'
p257
asg8
S'Data and Visual Analytics'
p258
sg10
(lp259
S'Grading'
p260
aS'Midterm - 15%'
p261
aS'Programming assignments - 50%'
p262
asg14
(lp263
S'Minimum Technical Requirements'
p264
aS'PC: Windows XP or higher with latest updates installed'
p265
asg18
(lp266
S'Overview'
p267
asg23
S'CSE 6242'
p268
sg25
(lp269
S'Prerequisites'
p270
aS'No background in machine learning is required'
p271
asg29
S"[u'Georgia Tech Academic Honor Code']"
p272
ssVCSE 6220
p273
(dp274
g3
(lp275
S'Required Course Readings'
p276
aS'Introduction to Parallel Computing'
p277
asg8
S'Intro to High-Performance Computing'
p278
sg10
(lp279
S'Grading'
p280
aS'Midterm - 15%'
p281
aS'Programming assignments - 50%'
p282
asg14
(lp283
S'Minimum Technical Requirements'
p284
aS'<span>Operating System: The following are the recommended operating systems for the course. We may also elect to provide virtual machines with a standardized environment, though most of the assignments can be completed by directly logging into the HPC resource we will provide via secure shell (ssh).</span>'
p285
aS'PC: Windows XP or higher with latest updates installed'
p286
aS'Mac: OS X 10.6 or higher with latest updates installed'
p287
asg18
(lp288
S'Overview'
p289
asg23
S'CSE 6220'
p290
sg25
(lp291
S'Prerequisites'
p292
asg29
S'[<img alt="Rich Vuduc" src="http://omscs.gatech.edu/sites/default/files/images/rich-vuduc-150x150.jpg"/>]'
p293
ssVCS 6440
p294
(dp295
g3
(lp296
S'Required Course Readings'
p297
asg8
S'Intro to Health Informatics'
p298
sg10
(lp299
S'Grading'
p300
aS'Each student must successfully complete and submit all course exercises.'
p301
aS'Each student must join and actively participate in the assigned team project as a programmer, designer or project manager.'
p302
asg14
(lp303
S'Minimum Technical Requirements'
p304
aS'Browser and connection speed: An up-to-date version of Chrome or Firefox is strongly recommended. We also support Internet Explorer 9 and the desktop versions of Internet Explorer 10 and above (not the metro versions). 2+ Mbps recommended; at minimum 0.768 Mbps download speed'
p305
asg18
(lp306
S'Overview'
p307
aS'CS 6440 Intro to Health Informatics Course Syllabus'
p308
asg23
S'CS 6440'
p309
sg25
(lp310
S'Prerequisites'
p311
asg29
S"[u'Mark Braunstein']"
p312
ssVCSE 8803 Special Topics
p313
(dp314
g3
(lp315
S'Required Course Readings'
p316
aS'For Mini-course 3: Machine Learning by Tom Mitchell(see note)'
p317
asg8
S'Big Data for Health Informatics'
p318
sg10
(lp319
S'Grading'
p320
aS'Participation - 5%'
p321
asg14
(lp322
S'Minimum Technical Requirements'
p323
aS'Cloud Computing - Amazing Web Service (AWS) or MS Azure'
p324
aS'Windows XP or higher with latest updates.'
p325
aS'Linux - Any recent distribution that has supported browsers installed'
p326
asg18
(lp327
S'Overview'
p328
aS'In healthcare, large amounts of heterogeneous medical data have become available in various healthcare organizations (payers, providers, pharmaceuticals). Those data could be an enabling resource for deriving insights for improving care delivery and reducing waste. The enormity and complexity of these datasets present great challenges in analyses and subsequent applications to a practical clinical environment.'
p329
asg23
S'CSE 8803 Special Topics'
p330
sg25
(lp331
S'Prerequisites'
p332
aS'Are you proficient with dealing with data in SQL and NoSQL?'
p333
asg29
S"[u'Jimeng Sun']"
p334
ssVCS 8803 Special Topics
p335
(dp336
g3
(lp337
S'Required Course Readings'
p338
aS'Suggested readings include '
p339
aS'Reinforcement Learning'
p340
asg8
S'Embedded Software'
p341
sg10
(lp342
S'Grading'
p343
asg14
(lp344
S'Minimum Technical Requirements'
p345
asg18
(lp346
S'Overview'
p347
aS'Part I: Embedded Processor Architectures'
p348
aS'2. Design of Instruction Set Architectures: VLIW encoding, Exposing vs Hiding Architectural Details, RISC vs CISC ISAs, Opportunities for compilers, Dependences and Independences, Instruction bundling for VLIW, Compact instruction representation.'
p349
aS'6. Register Allocation for Embedded Processors: Post-pass register allocation, Allocation gaps and register reuse, Energy reduction due to reduced memory accesses, Differential register allocation, Register encoding, Hardware support, Increase in exposed registers, Software pipelining and energy reduction'
p350
aS'8. Data and Code Compaction: X-Y memory, Parallelizing Load/Stores in DSPs, Data replication, Performance vs Data Segment/ size, ARM vs Thumb code generation, Mixed code generation, Frequent values in embedded programs and their encoding, Data cache optimization via compaction.'
p351
asg23
S'CS 8803 Special Topics'
p352
sg25
(lp353
S'Prerequisites'
p354
asg29
S"[u'Santosh Pande']"
p355
ssVCS 4495
p356
(dp357
g3
(lp358
S'Required Course Readings'
p359
asg8
S'Computer Vision'
p360
sg10
(lp361
S'Grading'
p362
asg14
(lp363
S'Minimum Technical Requirements'
p364
aS'Browser and connection speed: An up-to-date version of Chrome or Firefox is strongly recommended. We also support Internet Explorer 9 and the desktop versions of Internet Explorer 10 and above (not the metro versions). 2+ Mbps recommended; at minimum 0.768 Mbps download speed'
p365
asg18
(lp366
S'Overview'
p367
aS'The focus of the course is to develop the intuitions and mathematics of the methods in lecture, and then to learn about the difference between theory and practice in the problem sets. All algorithms work perfectly in the slides. But remember what Yogi Berra said: In theory there is no difference between theory and practice. In practice there is. (Einstein said something similar but who knows more about real life?)'
p368
asg23
S'CS 4495'
p369
sg25
(lp370
S'Prerequisites'
p371
aS'This course has more math than many CS courses: Linear algebra, vector calculus, and linear algebra, probability, and linear algebra. (Get the hint?)'
p372
aS'3. If you had to draw a line on an image with your own code, could you do that (ie no libraries)?'
p373
asg29
S"[u'Aaron Bobick']"
p374
ssVCS 6035
p375
(dp376
g3
(lp377
S'Required Course Readings'
p378
aS'Computer Security: Principle and Practice, 3/E by William Stallings and Lawrie Brown'
p379
asg8
S'Introduction to Information Security'
p380
sg10
(lp381
S'Grading'
p382
aS'Midterm Exam - 25%'
p383
aS'Assignments - 40%'
p384
asg14
(lp385
S'Minimum Technical Requirements'
p386
aS'Virtual Machine - You will be provided a virtual machine (VM) useful for performing class assignments and projects. For the projects, the supplied resources are identical to those used to test your submissions. Details for downloading and installing the VM can be found on T-Square.'
p387
asg18
(lp388
S'Overview'
p389
asg23
S'CS 6035'
p390
sg25
(lp391
S'Prerequisites'
p392
aS'CS 6035 Course Readiness Survey'
p393
asg29
S"[u'Wenke Lee']"
p394
ssVCS 7641
p395
(dp396
g3
(lp397
S'Required Course Readings'
p398
aS'Machine Learning'
p399
aS'Optional Text: '
p400
aS'Richard Sutton and Andrew Barto, '
p401
aS'Reinforcement Learning: An Introduction'
p402
asg8
S'Machine Learning'
p403
sg10
(lp404
S'Grading'
p405
aS'Exams will be proctored by ProctorU.'
p406
asg14
(lp407
S'Minimum Technical Requirements'
p408
aS'Operating system: -PC: Windows XP or higher with latest updates installed -Mac: OS X 10.6 or higher with latest updates installed -Linux: Any recent distribution that has the supported browsers installed'
p409
asg18
(lp410
S'Overview'
p411
aS'<strong>Supervised Learning </strong>'
p412
aS'<strong>Reinforcement Learning</strong>'
p413
aS'CS 7641 Course Syllabus'
p414
asg23
S'CS 7641'
p415
sg25
(lp416
S'Prerequisites'
p417
asg29
S"[u'Charles Isbell']"
p418
ssVCS 7646
p419
(dp420
g3
(lp421
S'Required Course Readings'
p422
aS'For Mini-course 3: Machine Learning by Tom Mitchell(see note)'
p423
aS"*Note: The Mitchell book is expensive (as of this writing, $212) but it is also required for the OMS ML course. Also, we're working with the publisher to offer a less expensive paperback version."
p424
asg8
S'Machine Learning for Trading'
p425
sg10
(lp426
S'Grading'
p427
aS'Exams will be proctored by ProctorU.'
p428
asg14
(lp429
S'Minimum Technical Requirements'
p430
aS'Operating system: - PC: Windows XP or higher with latest updates installed - Mac: OS X 10.6 or higher with latest updates installed - Linux: Any recent distribution that has the supported browsers installed'
p431
asg18
(lp432
S'Overview'
p433
aS'This course is composed of three mini-courses:'
p434
aS'Mini-course 1: Manipulating Financial Data in Python'
p435
aS'explore the CS 7646 Syllabus'
p436
asg23
S'CS 7646'
p437
sg25
(lp438
S'Prerequisites'
p439
asg29
S"[u'Tucker Balch']"
p440
ssVCS 6475
p441
(dp442
g3
(lp443
S'Required Course Readings'
p444
asg8
S'Computational Photography'
p445
sg10
(lp446
S'Grading'
p447
aS'Final Project - You will be assigned a final project to complete (on your own or in groups) by the end of the course. We strongly suggest you share ideas with your peers through Piazza in order to receive guidance on the project.'
p448
asg14
(lp449
S'Minimum Technical Requirements'
p450
asg18
(lp451
S'Overview'
p452
asg23
S'CS 6475'
p453
sg25
(lp454
S'Prerequisites'
p455
aS'Do you have basic knowledge of the functioning of a camera and exposure (shutter speed, ISO, and aperture)?'
p456
asg29
S"[u'Irfan Essa']"
p457
ssVCS 6300
p458
(dp459
g3
(lp460
S'Required Course Readings'
p461
asg8
S'Software Development Process '
p462
sg10
(lp463
S'Grading'
p464
aS'Udacity quizzes - In addition to the projects and assignments, you are required to complete all Udacity quizzes. Please note that you are not required to get the correct answer on these quizzes on the first try. We will look only at your last submission.'
p465
aS'We will be using Piazza as a forum for this site and Hangout on Air for the weekly online office hours. Please submit all of your course-related questions through Piazza. Let us also stress that you should make sure to read all Piazza postings and watch the office hours videos, or you may miss important information about the course.'
p466
asg14
(lp467
S'Minimum Technical Requirements'
p468
aS'Operating system: - PC: Windows XP or higher with latest updates installed - Mac: OS X 10.6 or higher with latest updates installed - Linux: Any recent distribution that has the supported browsers installed'
p469
asg18
(lp470
S'Overview'
p471
aS'For more info and to view a course syllabus, please visit the '
p472
aS'Udacity Course Page'
p473
asg23
S'CS 6300'
p474
sg25
(lp475
S'Prerequisites'
p476
aS'If you answer "no" to any of the following questions, it may be beneficial to refresh your knowledge of this material prior to taking CS 6300:'
p477
aS'Are you familiar with basic software engineering concepts, such as requirements, software design, and software testing?'
p478
aS'Are you comfortable, or even excited about, learning new technologies and working with software tools?'
p479
asg29
S"[u'Alessandro Orso']"
p480
ssVCS 6262
p481
(dp482
g3
(lp483
S'Required Course Readings'
p484
aS'You may, but are not required to read the papers listed in the "Instructor Notes" section under selected videos, and compiled in the '
p485
aS'Web Resources wiki page'
p486
asg8
S'Network Security'
p487
sg10
(lp488
S'Grading'
p489
aS'Assignments 1 through 8 - 10% per assignment'
p490
aS'Grades will be posted through T-Square. Late assignments will not be accepted. Assignments must be submitted by 11:55 pm (PST) on the due date posted in the schedule. Plan accordingly with your schedule as the second half of the assignments will be more time-intensive.'
p491
asg14
(lp492
S'Minimum Technical Requirements'
p493
aS'Operating system: - PC: Windows XP or higher with latest updates installed - Mac: OS X 10.6 or higher with latest updates installed - Linux: Any recent distribution that has the supported browsers installed'
p494
asg18
(lp495
S'Overview'
p496
aS'Malware-based attacks, phishing/frauds, underground economy/infrastructures'
p497
aS'Social engineering and human factors'
p498
aS'DNS cache poisoning and DNSSEC'
p499
aS'Web security model'
p500
aS'HTTPS: goals and pitfalls'
p501
aS'Evasive malware, APT'
p502
aS'Botnet detection (BotHunter and BotMiner)'
p503
aS'Domain/network reputation'
p504
aS'New/emerging technologies'
p505
aS'Security of big data, in particular, adversarial machine learning: poisoning of input/training data and evasion of learned models\n'
p506
aS'Oblivious RAM'
p507
aS'Secret-sharing'
p508
aS'Attack tolerance via diversification'
p509
asg23
S'CS 6262'
p510
sg25
(lp511
S'Prerequisites'
p512
aS"If you can confidently answer 'yes' to these questions, you should be fine:\n"
p513
aS'1.Can you explain the main distinction between TCP and UDP?'
p514
aS'4. Can you get files off of a virtual machine without a mapped directory?'
p515
asg29
S"[u'Georgia Tech Academic Honor Code']"
p516
ssVCS 6400
p517
(dp518
g3
(lp519
S'Required Course Readings'
p520
asg8
S'Database Systems Concepts and Design'
p521
sg10
(lp522
S'Grading'
p523
aS'Assignments'
p524
aS'Participation in online forums'
p525
asg14
(lp526
S'Minimum Technical Requirements'
p527
asg18
(lp528
S'Overview'
p529
asg23
S'CS 6400'
p530
sg25
(lp531
S'Prerequisites'
p532
asg29
S"[u'Leo Mark']"
p533
ssVCS 6290
p534
(dp535
g3
(lp536
S'Required Course Readings'
p537
asg8
S'High Performance Computer Architecture'
p538
sg10
(lp539
S'Grading'
p540
aS'Projects - You will be given several small and one large project. Each project is to be completed individually.'
p541
asg14
(lp542
S'Minimum Technical Requirements'
p543
aS'Browser and connection speed: An up-to-date version of Chrome or Firefox is strongly recommended. We also support Internet Explorer 9 and the desktop versions of Internet Explorer 10 and above (not the metro versions). 2+ Mbps recommended; at minimum 0.768 Mbps download speed'
p544
asg18
(lp545
S'Overview'
p546
asg23
S'CS 6290'
p547
sg25
(lp548
S'Prerequisites'
p549
aS'2. Are you familiar with at least one RISC instruction set and would you feel comfortable reading and writing small assembler programs?'
p550
aS'4. Are you familiar with C/C++ and would you be comfortable writing and/or modifying 100+ lines of code in a program that has over 100,000 lines of code?'
p551
asg29
S"[u'Milos Prvulovic']"
p552
ssVCS 6340
p553
(dp554
g3
(lp555
S'Required Course Readings'
p556
asg8
S'Software Analysis and Test'
p557
sg10
(lp558
S'Grading'
p559
aS'Proctored Final Exam - 20%'
p560
asg14
(lp561
S'Minimum Technical Requirements'
p562
aS'Linux - Any recent distribution that has supported browsers installed'
p563
asg18
(lp564
S'Overview'
p565
asg23
S'CS 6340'
p566
sg25
(lp567
S'Required Prerequisites'
p568
aS'Mathematical and logical reasoning (e.g. basics of set theory, graph theory, boolean algebra, and probability)'
p569
aS'Programming in a high-level language like Java'
p570
aS'Shell scripting on Linux-like operating systems'
p571
asg29
S"[u'Mayur Naik']"
p572
ss.