(lp0
(lp1
S'Charles Isbell'
p2
aS'Georgia Institute of Technology'
p3
aS'3.5'
p4
aS'4.3'
p5
aS'4.3'
p6
aS'4.3'
p7
aS'new-hot'
p8
aS'http://www.ratemyprofessors.com/ShowRatings.jsp?tid=962024'
p9
aS'My favorite professor so far. He really knows his stuff, and explains it to students in an easy to understand way. He has an amazing sense of humor and if I had to sum his personality in one word it would be awesome. His classes are really fun to go to and informative as well. He has Udacity lectures online but the classroom is way better.'
p10
aS'287,898.04'
p11
aa(lp12
S'Tucker Balch'
p13
aS'Georgia Institute of Technology'
p14
aS'5'
p15
aS'2'
p16
ag16
ag16
aS'new-hot'
p17
aS'http://www.ratemyprofessors.com/ShowRatings.jsp?tid=1939465'
p18
aS'I am just taking his CS 6446 ML4T class. He is a great professor. He is not condescending at all. He is very humble, which I think is a great attribute. So you do not feel intimidated. I wish he offered more classes!'
p19
aS'160,580.49'
p20
aa(lp21
S'Leo Mark'
p22
aS'Georgia Institute of Technology'
p23
aS'4'
p24
aS'3'
p25
ag25
ag25
aS'new-hot'
p26
aS'http://www.ratemyprofessors.com/ShowRatings.jsp?tid=1422812'
p27
aS'His courses are plentiful and satisfying, some might say "juciful."  At first, the course load may seem insurmountable, but the professor wants everyone to digest as much as possible.  Although by the end you feel overwhelmed, you keep coming back for more.'
p28
aS'192,399.96'
p29
aa(lp30
S'Nick Feamster'
p31
aS'Georgia Institute of Technology'
p32
ag15
ag16
ag16
ag16
aS'new-hot'
p33
aS'http://www.ratemyprofessors.com/ShowRatings.jsp?tid=1840312'
p34
aS'GOOD PROFESSOR!'
p35
aS'164,733.14'
p36
aa(lp37
S'Santosh Pande'
p38
aS'Georgia Institute of Technology'
p39
ag15
ag24
ag24
ag24
aS'new-hot'
p40
aS'http://www.ratemyprofessors.com/ShowRatings.jsp?tid=1667862'
p41
aS'Brilliant Professor, the course material is so extensive that if taken seriously the student will be ready to take up any compiler related work in the industry.'
p42
aS'142,003.07'
p43
aa(lp44
S'Thad Starner'
p45
aS'Georgia Institute of Technology'
p46
aS'3.9'
p47
aS'3.8'
p48
aS'3.8'
p49
aS'3.8'
p50
aS'cold'
p51
aS'http://www.ratemyprofessors.com/ShowRatings.jsp?tid=10478'
p52
aS"Class is interesting and Thad is good guy.  He will you out.  All the projects are in LISP and are very time consuming.  If you aren't experienced in LISP, you sure will be.  Tests are long and difficult but open book ote.  You will have a rock-solid grasp on the fundamentals of AI after this course."
p53
aS'132,794.40'
p54
aa(lp55
S'Aaron Bobick'
p56
aS'Georgia Institute of Technology'
p57
aS'3.7'
p58
ag25
ag25
ag25
aS'cold'
p59
aS'http://www.ratemyprofessors.com/ShowRatings.jsp?tid=540063'
p60
aS'Not bad for a tough class, he is funny and a pretty cool teacher.  Go to the review sessions for tests and the sessions where they do your homework for you and you can make an A.'
p61
aS'255,950.00'
p62
aa(lp63
S'Ashok Goel'
p64
aS'Georgia Institute of Technology'
p65
aS'4.4'
p66
aS'2.2'
p67
aS'2.2'
p68
aS'2.2'
p69
aS'cold'
p70
aS'http://www.ratemyprofessors.com/ShowRatings.jsp?tid=656210'
p71
aS'Really helpful and gives great lectures. Made me get interested into the field of AI and cognition.'
p72
aS'213,784.17'
p73
aa(lp74
S'Sebastian Thrun'
p75
aS'Stanford University'
p76
aS'4.5'
p77
ag16
ag16
ag16
aS'cold'
p78
aS'http://www.ratemyprofessors.com/ShowRatings.jsp?tid=1695084'
p79
aS"I'm taking his CS 373 class at Udacity. He's very intelligent and explains everything thoroughly, and gives appropriate praise when we finish the more difficult sections."
p80
aS'300,000.00'
p81
aa(lp82
S'Wenke Lee'
p83
aS'Georgia Institute of Technology'
p84
aS'2.543015486'
p85
aS'2.368594391'
p86
aS'2.283869621'
p87
aS'2.044464824'
p88
aS'new-hot'
p89
aS''
p90
ag90
ag90
aa(lp91
S'Kishore Ramachandran'
p92
aS'Georgia Institute of Technology'
p93
aS'4.148632087'
p94
aS'4.902333058'
p95
aS'3.555890595'
p96
aS'3.554562106'
p97
aS'cold'
p98
ag90
ag90
ag90
aa(lp99
S'Rich Vuduc'
p100
aS'Georgia Institute of Technology'
p101
aS'2.336431427'
p102
aS'4.209014291'
p103
aS'2.676598534'
p104
aS'2.896602215'
p105
aS'cold'
p106
ag90
ag90
ag90
aa(lp107
S'Guy Lebanon'
p108
aS'Georgia Institute of Technology'
p109
aS'4.605955893'
p110
aS'2.957870509'
p111
aS'4.873660316'
p112
aS'2.206907826'
p113
aS'new-hot'
p114
ag90
ag90
ag90
aa(lp115
S'Milos Prvulovic'
p116
aS'Georgia Institute of Technology'
p117
aS'4.453595713'
p118
aS'3.18863461'
p119
aS'3.678715145'
p120
aS'3.744660286'
p121
aS'cold'
p122
ag90
ag90
ag90
aa(lp123
S'Alessandro Orso'
p124
aS'Georgia Institute of Technology'
p125
aS'4.135217504'
p126
aS'3.704127316'
p127
aS'3.228303044'
p128
aS'2.931508748'
p129
aS'new-hot'
p130
ag90
ag90
ag90
aa(lp131
S'Spencer Rugaber'
p132
aS'Georgia Institute of Technology'
p133
aS'4.61552362'
p134
aS'4.998504686'
p135
aS'2.886746308'
p136
aS'4.741561043'
p137
aS'cold'
p138
ag90
ag90
ag90
aa(lp139
S'Mayur Naik'
p140
aS'Georgia Institute of Technology'
p141
aS'4.605018795'
p142
aS'2.931159714'
p143
aS'2.612453024'
p144
aS'2.64752614'
p145
aS'cold'
p146
ag90
ag90
ag90
aa(lp147
S'Mark Braunstein'
p148
aS'Georgia Institute of Technology'
p149
aS'4.299866952'
p150
aS'3.54309874'
p151
aS'2.125975211'
p152
aS'2.357364042'
p153
aS'cold'
p154
ag90
ag90
ag90
aa(lp155
S'David Joyner'
p156
aS'Georgia Institute of Technology'
p157
aS'3.169053961'
p158
aS'4.894739072'
p159
aS'3.605282424'
p160
aS'3.290338298'
p161
aS'new-hot'
p162
ag90
ag90
ag90
aa(lp163
S'Irfan Essa'
p164
aS'Georgia Institute of Technology'
p165
aS'4.494460277'
p166
aS'2.206813063'
p167
aS'3.250611383'
p168
aS'4.945044943'
p169
aS'cold'
p170
ag90
ag90
ag90
aa(lp171
S'Charlie Brubaker'
p172
aS'Georgia Institute of Technology'
p173
aS'3.639193771'
p174
aS'4.220937151'
p175
aS'3.858115652'
p176
aS'2.429310928'
p177
aS'cold'
p178
ag90
ag90
ag90
aa(lp179
S'Jimeng Sun'
p180
aS'Georgia Institute of Technology'
p181
aS'4.445676294'
p182
aS'4.923958189'
p183
aS'3.484716846'
p184
aS'4.231741283'
p185
aS'new-hot'
p186
ag90
ag90
ag90
aa(lp187
S'Ada Gavrilovska'
p188
aS'Georgia Institute of Technology'
p189
aS'4.406000177'
p190
aS'4.938309628'
p191
aS'2.581132083'
p192
aS'2.249031905'
p193
aS'cold'
p194
ag90
ag90
ag90
aa(lp195
S'Raheem Beyah'
p196
aS'Georgia Institute of Technology'
p197
aS'4.774499774'
p198
aS'4.694402815'
p199
aS'3.130086784'
p200
aS'2.168809443'
p201
aS'new-hot'
p202
ag90
ag90
ag90
aa.