(dp0
S'Interactive Intelligence'
p1
(lp2
(lp3
S'CS 6300'
p4
aS'CS 6505'
p5
aa(lp6
(S'CS 6601'
p7
S'CS 7637'
p8
tp9
a(g7
S'CS 7641'
p10
tp11
a(g8
g10
tp12
aa(lp13
(S'CS 6440'
p14
S'CS 6460'
p15
tp16
aasS'Computational Perception & Robotics'
p17
(lp18
(lp19
S'CS 6601'
p20
aS'CS 7641'
p21
aa(lp22
(S'CS 6505'
p23
S'CS 6475'
p24
S'CS 6476'
p25
S'CS 8803-O01'
p26
tp27
aasS'Computing Systems'
p28
(lp29
(lp30
S'CS 6505'
p31
aa(lp32
(S'CS 6210'
p33
S'CS 6250'
p34
tp35
a(g33
S'CS 6290'
p36
tp37
a(g33
S'CS 6300'
p38
tp39
a(g33
S'CS 6400'
p40
tp41
a(g34
g36
tp42
a(g34
g38
tp43
a(g34
g40
tp44
a(g36
g38
tp45
a(g36
g40
tp46
a(g38
g40
tp47
aa(lp48
(S'CS 6035'
p49
S'CS 6262'
p50
S'CS 6310'
p51
tp52
a(g49
g50
S'CS 6340'
p53
tp54
a(g49
g51
g53
tp55
a(g50
g51
g53
tp56
aasS'Machine Learning'
p57
(lp58
(lp59
(S'CS 6505'
p60
S'CS 7641'
p61
S'CS 7646'
p62
S'CSE 6242'
p63
tp64
aas.