(dp0
S'Interactive Intelligence'
p1
(lp2
S'CS 6300'
p3
aS'CS 6505'
p4
aS'CS 6601'
p5
aS'CS 7637'
p6
aS'CS 7641'
p7
aS'CS 6440'
p8
aS'CS 6460'
p9
asS'Computational Perception & Robotics'
p10
(lp11
S'CS 6505'
p12
aS'CS 6601'
p13
aS'CS 7641'
p14
aS'CS 6475'
p15
aS'CS 6476'
p16
aS'CS 8803-O01'
p17
asS'Computing Systems'
p18
(lp19
S'CS 6505'
p20
aS'CS 6210'
p21
aS'CS 6250'
p22
aS'CS 6290'
p23
aS'CS 6300'
p24
aS'CS 6400'
p25
aS'CS 6035'
p26
aS'CS 6262'
p27
aS'CS 6310'
p28
aS'CS 6340'
p29
asS'Machine Learning'
p30
(lp31
S'CS 6505'
p32
aS'CS 7641'
p33
aS'CS 7646'
p34
aS'CS 6242'
p35
as.