(dp0
S'CS 6250'
p1
cnumpy.core.multiarray
_reconstruct
p2
(cnumpy
ndarray
p3
(I0
tp4
S'b'
p5
tp6
Rp7
(I1
(I9
I9
tp8
cnumpy
dtype
p9
(S'O8'
p10
I0
I1
tp11
Rp12
(I3
S'|'
p13
NNNI-1
I-1
I63
tp14
bI01
(lp15
VAmmar, Mostafa H
p16
aVVery Large (50 Students or More)
p17
aF3.96
aI95
aI3
aI0
aI0
aI0
aI1
aVClark, Russell J
p18
aVVery Small (Fewer than 10 Students)
p19
aF3.67
aI67
aI33
aI0
aI0
aI0
aI0
aVDovrolis, Konstantinos
p20
aVLarge (31-49 Students)
p21
aF3.62
aI64
aI24
aI5
aI1
aI0
aI6
aVFeamster, Nicholas G
p22
ag17
aF3.74
aI71
aI13
aI4
aI0
aI1
aI10
aVHutchins, Ronald R
p23
aVSmall (10-20 students)
p24
aF3.9
aI92
aI6
aI1
aI0
aI1
aI1
aVLillethun, David J
p25
aVVery Large (50 students or more)
p26
aF3.68
aI73
aI8
aI1
aI1
aI3
aI13
aVMckinnon, Martin W
p27
ag21
aF3.44
aI41
aI45
aI2
aI0
aI0
aI5
aVXu, Jun
p28
ag17
aF3.43
aI52
aI33
aI9
aI1
aI1
aI3
aVZegura, Ellen
p29
ag17
aF3.46
aI48
aI50
aI2
aI0
aI0
aI0
atp30
bsS'CS 6505'
p31
g2
(g3
(I0
tp32
g5
tp33
Rp34
(I1
(I9
I9
tp35
g12
I01
(lp36
VApostolico, Alberto
p37
aVMid-Size (21-30 Students)
p38
aF2.24
aI17
aI24
aI41
aI0
aI17
aI0
aVBader, David Albert
p39
aVLarge (31-49 Students)
p40
aF3.2
aI41
aI31
aI15
aI0
aI3
aI8
aVBasu, Saugata
p41
ag40
aF3.63
aI56
aI33
aI0
aI0
aI0
aI8
aVBrubaker, Spencer C
p42
aVVery Large (50 students or more)
p43
aF2.94
aI24
aI16
aI6
aI4
aI4
aI45
aVDing, Yan
p44
ag40
aF3.35
aI50
aI33
aI13
aI0
aI2
aI3
aVLipton, Richard
p45
aVVery Large (50 Students or More)
p46
aF3.82
aI80
aI15
aI2
aI0
aI0
aI3
aVMihail, Kalomire-Eleni
p47
ag43
aF3.71
aI72
aI23
aI2
aI0
aI0
aI2
aVVempala, Santosh Srinivas
p48
ag46
aF3.48
aI48
aI30
aI5
aI1
aI1
aI13
aVVenkateswaran, H
p49
ag46
aF3.37
aI45
aI36
aI9
aI1
aI0
aI6
atp50
bsS'CS 6601'
p51
g2
(g3
(I0
tp52
g5
tp53
Rp54
(I1
(I4
I9
tp55
g12
I01
(lp56
VDellaert, Frank
p57
aVLarge (31-49 Students)
p58
aF3.56
aI64
aI17
aI12
aI0
aI0
aI2
aVGoel, Ashok K
p59
ag58
aF3.52
aI54
aI26
aI6
aI1
aI1
aI7
aVStarner, Thad E
p60
ag58
aF3.46
aI54
aI28
aI6
aI1
aI1
aI7
aVZha, Hongyuan
p61
aVVery Small (Fewer than 10 Students)
p62
aF3.96
aI96
aI4
aI0
aI0
aI0
aI0
atp63
bsS'CS 6460'
p64
g2
(g3
(I0
tp65
g5
tp66
Rp67
(I1
(I4
I9
tp68
g12
I01
(lp69
VDesportes, Kayla Surry
p70
aVVery Small (Fewer than 10 students)
p71
aF4.0
aI100
aI0
aI0
aI0
aI0
aI0
aVDisalvo, Elizabeth Nora
p72
aVSmall (10-20 students)
p73
aF3.95
aI94
aI5
aI0
aI0
aI0
aI0
aVGuzdial, Mark
p74
aVSmall (10-20 Students)
p75
aF4.0
aI72
aI0
aI0
aI0
aI0
aI4
aVKolodner, Janet L
p76
ag75
aF3.7
aI66
aI22
aI3
aI0
aI0
aI6
atp77
bsS'CS 8803'
p78
g2
(g3
(I0
tp79
g5
tp80
Rp81
(I1
(I141
I9
tp82
g12
I01
(lp83
VAbowd, Gregory D
p84
aVVery Small (Fewer than 10 Students)
p85
aF3.44
aI54
aI20
aI5
aI5
aI0
aI7
aVAhamad, Mustaque
p86
aVSmall (10-20 Students)
p87
aF3.72
aI69
aI21
aI3
aI0
aI0
aI6
aVAmmar, Mostafa H
p88
aVMid-Size (21-30 Students)
p89
aF3.94
aI80
aI6
aI0
aI0
aI0
aI0
aVAnderson, Carl
p90
ag85
aF3.5
aI33
aI33
aI0
aI0
aI0
aI0
aVAnton, Ana I
p91
aVVery Small (Fewer than 10 students)
p92
aF3.95
aI95
aI5
aI0
aI0
aI0
aI0
aVApostolico, Alberto
p93
ag87
aF3.15
aI25
aI35
aI0
aI0
aI5
aI15
aVBader, David Albert
p94
aVVery Large (50 Students or More)
p95
aF3.6
aI66
aI18
aI2
aI0
aI3
aI2
aVBadre, Albert N
p96
ag87
aF3.93
aI92
aI2
aI0
aI0
aI1
aI5
aVBalcan, Maria-Florina
p97
ag89
aF3.89
aI67
aI8
aI0
aI0
aI0
aI2
aVBalch, Tucker R
p98
ag85
aF3.88
aI90
aI5
aI0
aI1
aI1
aI1
aVBarlow, David A
p99
aVSmall (10-20 students)
p100
aF4.0
aI100
aI0
aI0
aI0
aI0
aI0
aVBasole, Rahul
p101
ag85
aF4.0
aI100
aI0
aI0
aI0
aI0
aI0
aVBasole, Rahul C
p102
ag92
aF4.0
aI88
aI0
aI0
aI0
aI0
aI0
aVBest, Michael L
p103
ag87
aF3.76
aI69
aI24
aI0
aI0
aI0
aI7
aVBiggers, Maureen S
p104
aVLarge (31-49 Students)
p105
aF3.66
aI64
aI33
aI0
aI0
aI0
aI0
aVBobick, Aaron
p106
ag87
aF3.44
aI44
aI19
aI0
aI0
aI4
aI3
aVBogost, Ian S
p107
ag85
aF4.0
aI100
aI0
aI0
aI0
aI0
aI0
aVBolter, Jay D
p108
ag87
aF4.0
aI95
aI0
aI0
aI0
aI0
aI5
aVBoots, Byron Emereth
p109
aVMid-size (21-30 students)
p110
aF3.78
aI65
aI9
aI4
aI0
aI0
aI13
aVBraunstein, Mark L
p111
ag87
aF3.98
aI87
aI2
aI0
aI0
aI0
aI3
aVBurnham, Blaine Windsor
p112
ag85
aF4.0
aI56
aI0
aI0
aI0
aI0
aI0
aVChoi, Myung C
p113
ag87
aF3.76
aI68
aI22
aI0
aI0
aI0
aI3
aVChristensen, Henrik Iskov
p114
ag87
aF3.86
aI76
aI11
aI1
aI0
aI0
aI6
aVClark, Nathan Thomas
p115
ag89
aF3.84
aI73
aI11
aI2
aI0
aI0
aI0
aVClark, Russell J
p116
ag105
aF3.86
aI81
aI11
aI1
aI0
aI0
aI3
aVClark,Russell J
p117
ag87
aF3.92
aI86
aI7
aI0
aI0
aI0
aI7
aVColeman, Maribeth Gandy
p118
ag85
aF3.8
aI72
aI6
aI2
aI2
aI0
aI3
aVConte, Thomas Martin
p119
ag95
aF3.52
aI42
aI28
aI3
aI0
aI0
aI2
aVCooper, Brian Frank
p120
ag87
aF3.93
aI70
aI5
aI0
aI0
aI0
aI5
aVCopeland, John A
p121
ag87
aF3.8
aI75
aI19
aI0
aI0
aI0
aI6
aVDellaert, Frank
p122
ag87
aF3.53
aI50
aI32
aI3
aI0
aI0
aI3
aVDeMillo, Richard A
p123
ag87
aF3.6
aI55
aI36
aI0
aI0
aI0
aI9
aVDing, Yan
p124
ag87
aF3.64
aI60
aI22
aI4
aI0
aI0
aI7
aVDo, Yi-Luen Ellen
p125
ag85
aF4.0
aI94
aI0
aI0
aI0
aI0
aI2
aVDos Santos, Andre L
p126
ag89
aF3.78
aI78
aI4
aI0
aI4
aI0
aI8
aVDovrolis, Konstantinos
p127
ag89
aF3.93
aI81
aI6
aI0
aI0
aI0
aI0
aVEason, William Thomas
p128
ag100
aF3.92
aI73
aI7
aI0
aI0
aI0
aI7
aVEisenstein, Jacob R
p129
ag100
aF3.66
aI59
aI30
aI0
aI0
aI0
aI7
aVEndert, Alexander
p130
ag100
aF3.86
aI71
aI12
aI0
aI0
aI0
aI6
aVEnslow Jr, Philip H
p131
ag85
aF3.9
aI85
aI10
aI0
aI0
aI0
aI0
aVEsmaeilzadeh, Hadi
p132
ag110
aF3.81
aI68
aI16
aI0
aI0
aI0
aI0
aVEssa, Irfan A
p133
ag85
aF3.92
aI81
aI5
aI1
aI0
aI0
aI8
aVFeamster, Nicholas G
p134
ag105
aF4.0
aI94
aI0
aI0
aI0
aI0
aI3
aVFortnow, Lance Jeremy
p135
ag92
aF3.89
aI80
aI10
aI0
aI0
aI0
aI10
aVFujimoto, Richard M
p136
ag85
aF3.81
aI80
aI11
aI2
aI0
aI0
aI4
aVGavrilovska Habl, Ada
p137
ag85
aF3.61
aI51
aI19
aI2
aI0
aI1
aI17
aVGiffin, Jonathon Thomas
p138
ag87
aF3.66
aI68
aI15
aI2
aI4
aI0
aI1
aVGilbert, Eric E
p139
ag89
aF3.77
aI76
aI16
aI0
aI0
aI2
aI1
aVGoel, Ashok K
p140
ag89
aF3.77
aI75
aI16
aI2
aI0
aI0
aI3
aVGray, Alexander G
p141
ag105
aF3.98
aI61
aI1
aI0
aI0
aI0
aI8
aVGuzdial, Mark
p142
ag85
aF4.0
aI75
aI0
aI0
aI0
aI0
aI0
aVHarris, William R
p143
ag100
aF4.0
aI54
aI0
aI0
aI0
aI0
aI0
aVHarrold, Mary Jean
p144
ag85
aF3.66
aI67
aI10
aI12
aI0
aI0
aI7
aVHunter, Michael T
p145
ag85
aF4.0
aI100
aI0
aI0
aI0
aI0
aI0
aVHutchins, Ronald R
p146
ag100
aF3.94
aI94
aI6
aI0
aI0
aI0
aI0
aVIsbell Jr, Charles Lee
p147
ag85
aF3.83
aI77
aI14
aI0
aI0
aI0
aI7
aVIwanska, Lucja M
p148
ag87
aF3.58
aI67
aI7
aI0
aI0
aI7
aI20
aVJackson, Melody Moore
p149
ag85
aF4.0
aI100
aI0
aI0
aI0
aI0
aI0
aVJain, Ramesh C
p150
ag87
aF3.69
aI65
aI17
aI4
aI0
aI0
aI0
aVJayant, Nikil S
p151
ag87
aF3.83
aI71
aI14
aI0
aI0
aI0
aI14
aVKalai, Adam
p152
ag105
aF4.0
aI70
aI0
aI0
aI0
aI0
aI9
aVKalai, Yael T
p153
ag87
aF3.6
aI40
aI27
aI0
aI0
aI0
aI13
aVKim, Hyesoon
p154
ag105
aF3.76
aI62
aI18
aI1
aI0
aI0
aI0
aVKira, Zsolt
p155
aVLarge (31-49 students)
p156
aF3.59
aI55
aI28
aI4
aI0
aI0
aI4
aVKoenig, Sven
p157
ag87
aF4.0
aI57
aI0
aI0
aI0
aI0
aI7
aVKolodner, Janet L
p158
ag87
aF3.74
aI46
aI14
aI0
aI0
aI0
aI14
aVKumar, Rajnish
p159
ag89
aF3.64
aI68
aI28
aI4
aI0
aI0
aI0
aVLanterman, Aaron D
p160
ag92
aF3.88
aI80
aI10
aI0
aI0
aI0
aI0
aVLee, Wenke
p161
ag87
aF3.78
aI80
aI10
aI0
aI0
aI3
aI0
aVLim, Sung-Kyu
p162
ag87
aF3.75
aI76
aI22
aI1
aI0
aI0
aI0
aVLipkin, Harvey
p163
ag87
aF3.46
aI40
aI37
aI0
aI0
aI0
aI23
aVLipton, Richard
p164
ag87
aF4.0
aI82
aI0
aI0
aI0
aI0
aI0
aVLiu, Cheng-Yun Karen
p165
ag87
aF3.96
aI73
aI4
aI0
aI0
aI0
aI8
aVLiu, Ling
p166
ag89
aF3.83
aI74
aI14
aI0
aI0
aI0
aI3
aVLoh, Gabriel H
p167
ag87
aF3.36
aI43
aI17
aI7
aI5
aI0
aI9
aVMacIntyre, Blair
p168
ag85
aF3.94
aI91
aI5
aI0
aI0
aI0
aI1
aVMackenzie, Kenneth M
p169
ag85
aF4.0
aI78
aI0
aI0
aI0
aI0
aI11
aVMagerko, Brian S
p170
ag85
aF3.55
aI56
aI42
aI2
aI0
aI0
aI0
aVManolios, Panagiotis
p171
ag85
aF3.34
aI36
aI21
aI5
aI3
aI0
aI1
aVMark, Leo
p172
ag89
aF3.64
aI64
aI36
aI0
aI0
aI0
aI0
aVMcCracken, W Michael
p173
ag85
aF4.0
aI100
aI0
aI0
aI0
aI0
aI0
aVMihail, Kalomire-Eleni
p174
ag85
aF4.0
aI82
aI0
aI0
aI0
aI0
aI13
aVMorton Jr, David Lindsay
p175
ag92
aF4.0
aI75
aI0
aI0
aI0
aI0
aI0
aVNagaraj Raghavendra, Prasad
p176
ag85
aF3.5
aI44
aI44
aI0
aI0
aI0
aI0
aVNaik, Mayur Hiru
p177
ag89
aF3.91
aI78
aI6
aI0
aI0
aI0
aI2
aVNelson-Palmer, Michael K
p178
ag87
aF3.74
aI71
aI15
aI3
aI0
aI0
aI8
aVNovick, David Graham
p179
ag85
aF3.0
aI60
aI20
aI0
aI0
aI20
aI0
aVO'Neill, Brian C
p180
ag85
aF3.0
aI0
aI100
aI0
aI0
aI0
aI0
aVOmiecinski, Edward R
p181
ag87
aF3.68
aI68
aI24
aI3
aI0
aI0
aI2
aVOrso, Alessandro
p182
ag89
aF3.5
aI48
aI34
aI4
aI0
aI0
aI0
aVPalem, Krishna
p183
ag85
aF3.5
aI46
aI38
aI0
aI0
aI0
aI0
aVPande, Santosh
p184
ag85
aF3.16
aI42
aI20
aI6
aI4
aI6
aI13
aVPark, Haesun
p185
ag89
aF3.38
aI31
aI51
aI0
aI1
aI0
aI8
aVPeikert, Christopher Jason
p186
ag87
aF3.72
aI68
aI13
aI3
aI2
aI0
aI2
aVPerkins, William F
p187
ag85
aF4.0
aI100
aI0
aI0
aI0
aI0
aI0
aVPierce, Jeffrey S
p188
ag87
aF3.89
aI89
aI11
aI0
aI0
aI0
aI0
aVPiliouras, Georgios
p189
ag92
aF4.0
aI100
aI0
aI0
aI0
aI0
aI0
aVPippin, Charles Everett
p190
ag100
aF3.67
aI36
aI18
aI0
aI0
aI0
aI18
aVPrvulovic, Milos
p191
ag87
aF3.94
aI73
aI4
aI0
aI0
aI0
aI0
aVPu, Calton
p192
ag85
aF3.84
aI76
aI3
aI1
aI0
aI1
aI1
aVRam, Ashwin
p193
ag87
aF3.8
aI75
aI7
aI4
aI0
aI0
aI7
aVRamachandran, Umakishore
p194
ag87
aF3.82
aI66
aI13
aI0
aI0
aI0
aI0
aVRandall, Dana
p195
ag87
aF3.91
aI81
aI8
aI0
aI0
aI0
aI0
aVRehg, James Matthew
p196
ag105
aF3.92
aI82
aI6
aI1
aI0
aI0
aI4
aVRiedl, Mark O
p197
ag87
aF3.68
aI71
aI15
aI8
aI0
aI0
aI1
aVRossignac, Jaroslaw R
p198
ag85
aF3.67
aI57
aI29
aI0
aI0
aI0
aI0
aVRouse, William
p199
ag87
aF3.42
aI31
aI44
aI0
aI0
aI0
aI0
aVSalomone, Michael D
p200
ag85
aF4.0
aI100
aI0
aI0
aI0
aI0
aI0
aVSaltz, Joel H
p201
ag87
aF4.0
aI77
aI0
aI0
aI0
aI0
aI0
aVSanders, Matthew J
p202
ag100
aF3.63
aI50
aI30
aI0
aI0
aI0
aI0
aVSchindler, Grant Evan
p203
ag85
aF4.0
aI100
aI0
aI0
aI0
aI0
aI0
aVShivers, Olin
p204
ag87
aF3.55
aI54
aI25
aI7
aI0
aI0
aI0
aVSmaragdakis, Ioannis
p205
ag85
aF3.78
aI64
aI10
aI1
aI1
aI0
aI0
aVStarner, Thad E
p206
ag87
aF3.43
aI55
aI0
aI0
aI0
aI9
aI27
aVStilman, Michael
p207
ag87
aF3.83
aI80
aI17
aI0
aI0
aI0
aI2
aVSubramanian, Mani M
p208
ag87
aF3.37
aI44
aI40
aI7
aI2
aI0
aI5
aVSzymczak, Andrzej
p209
ag87
aF4.0
aI87
aI0
aI0
aI0
aI0
aI4
aVTetali, Prasad
p210
ag85
aF4.0
aI67
aI0
aI0
aI0
aI0
aI11
aVThomaz, Andrea Lockerd
p211
ag87
aF3.93
aI82
aI6
aI0
aI0
aI0
aI2
aVThrun, Sebastian
p212
aVVery Large (50 students or more)
p213
aF3.52
aI67
aI16
aI5
aI2
aI4
aI7
aVTodd, Robert Lynch
p214
ag85
aF3.88
aI84
aI12
aI0
aI0
aI0
aI0
aVTraynor, Patrick Gerard
p215
ag87
aF3.43
aI50
aI28
aI0
aI7
aI0
aI2
aVTurk, Gregory
p216
ag85
aF3.89
aI84
aI9
aI0
aI0
aI0
aI1
aVUrban, Stephen Montgomery
p217
ag92
aF4.0
aI100
aI0
aI0
aI0
aI0
aI0
aVUrban,Stephen Montgomery
p218
ag92
aF4.0
aI100
aI0
aI0
aI0
aI0
aI0
aVVazirani, Vijay V
p219
ag87
aF4.0
aI89
aI0
aI0
aI0
aI0
aI3
aVVegh, Laszlo
p220
ag85
aF4.0
aI67
aI0
aI0
aI0
aI0
aI0
aVVempala, Santosh Srinivas
p221
ag105
aF3.62
aI54
aI15
aI3
aI0
aI1
aI7
aVVenkateswaran, H
p222
ag105
aF3.61
aI60
aI23
aI7
aI0
aI0
aI10
aVVigoda, Eric Joseph
p223
ag87
aF4.0
aI58
aI0
aI0
aI0
aI0
aI5
aVVuduc, Richard Wilson
p224
ag87
aF3.89
aI73
aI10
aI0
aI0
aI0
aI5
aVWagner, Alan Richard
p225
ag92
aF4.0
aI67
aI0
aI0
aI0
aI0
aI0
aVWalker, Bruce N
p226
ag85
aF4.0
aI100
aI0
aI0
aI0
aI0
aI0
aVWhite, David Randall
p227
ag85
aF3.92
aI92
aI9
aI0
aI0
aI0
aI0
aVWilson, Jeffrey B
p228
ag87
aF3.7
aI69
aI27
aI0
aI0
aI0
aI3
aVXu, Jun
p229
ag85
aF4.0
aI73
aI0
aI0
aI0
aI0
aI10
aVZajic, Alenka
p230
ag85
aF3.83
aI71
aI14
aI0
aI0
aI0
aI0
aVZegura, Ellen
p231
ag89
aF3.87
aI60
aI8
aI0
aI0
aI0
aI4
aVZha, Hongyuan
p232
ag89
aF3.58
aI51
aI37
aI0
aI0
aI0
aI2
aVZiegler, Andrew Moore
p233
ag92
aF4.0
aI100
aI0
aI0
aI0
aI0
aI0
aVZiegler,Andrew Moore
p234
ag92
aF4.0
aI100
aI0
aI0
aI0
aI0
aI0
atp235
bsS'CS 6310'
p236
g2
(g3
(I0
tp237
g5
tp238
Rp239
(I1
(I3
I9
tp240
g12
I01
(lp241
VFeron, Eric Marie J
p242
aVVery Large (50 students or more)
p243
aF3.49
aI43
aI21
aI3
aI0
aI2
aI31
aVMoss, Mark Bomi
p244
ag243
aF3.5
aI33
aI22
aI3
aI0
aI0
aI41
aVRugaber, Jon Spencer
p245
aVSmall (10-20 Students)
p246
aF3.45
aI46
aI36
aI4
aI0
aI0
aI11
atp247
bsS'CS 6210'
p248
g2
(g3
(I0
tp249
g5
tp250
Rp251
(I1
(I5
I9
tp252
g12
I01
(lp253
VAhamad, Mustaque
p254
aVVery Small (Fewer than 10 students)
p255
aF3.64
aI39
aI28
aI2
aI0
aI0
aI31
aVGiffin, Jonathon Thomas
p256
aVVery Small (Fewer than 10 Students)
p257
aF3.43
aI47
aI29
aI5
aI0
aI3
aI8
aVLee, Wenke
p258
aVVery Large (50 students or more)
p259
aF3.69
aI68
aI22
aI3
aI0
aI0
aI7
aVOdom, Joel Van
p260
ag255
aF3.93
aI89
aI6
aI0
aI0
aI0
aI3
aVPhillips JR, Charles Edward
p261
ag257
aF4.0
aI93
aI0
aI0
aI0
aI0
aI0
atp262
bsS'CS 7637'
p263
g2
(g3
(I0
tp264
g5
tp265
Rp266
(I1
(I2
I9
tp267
g12
I01
(lp268
VGoel, Ashok K
p269
aVSmall (10-20 Students)
p270
aF3.75
aI70
aI9
aI4
aI0
aI1
aI12
aVJoyner, David Andrew
p271
aVVery Large (50 students or more)
p272
aF3.57
aI56
aI18
aI2
aI1
aI3
aI21
atp273
bsS'CSE 6242'
p274
g2
(g3
(I0
tp275
g5
tp276
Rp277
(I1
(I5
I9
tp278
g12
I01
(lp279
g254
ag255
aF3.64
aI39
aI28
aI2
aI0
aI0
aI31
ag256
ag257
aF3.43
aI47
aI29
aI5
aI0
aI3
aI8
ag258
ag259
aF3.69
aI68
aI22
aI3
aI0
aI0
aI7
ag260
ag255
aF3.93
aI89
aI6
aI0
aI0
aI0
aI3
ag261
ag257
aF4.0
aI93
aI0
aI0
aI0
aI0
aI0
atp280
bsS'CS 6400'
p281
g2
(g3
(I0
tp282
g5
tp283
Rp284
(I1
(I2
I9
tp285
g12
I01
(lp286
VNavathe, Shamkant B
p287
aVLarge (31-49 Students)
p288
aF3.51
aI48
aI41
aI1
aI0
aI0
aI5
aVOmiecinski, Edward R
p289
ag288
aF3.28
aI44
aI36
aI10
aI2
aI1
aI4
atp290
bsS'CS 6440'
p291
g2
(g3
(I0
tp292
g5
tp293
Rp294
(I1
(I1
I9
tp295
g12
I01
(lp296
VBraunstein, Mark L
p297
aVSmall (10-20 Students)
p298
aF3.94
aI86
aI6
aI0
aI0
aI0
aI4
atp299
bsS'CSE 8803 Special Topics'
p300
g2
(g3
(I0
tp301
g5
tp302
Rp303
(I1
(I2
I9
tp304
g12
I01
(lp305
VBalch, Tucker R
p306
aVVery Large (50 Students or More)
p307
aF3.88
aI83
aI6
aI2
aI0
aI0
aI1
aVByrd, Charles David
p308
aVLarge (31-49 students)
p309
aF3.81
aI70
aI7
aI4
aI0
aI0
aI7
atp310
bsS'CS 4495'
p311
g2
(g3
(I0
tp312
g5
tp313
Rp314
(I1
(I2
I9
tp315
g12
I01
(lp316
VEssa, Irfan A
p317
aVMid-size (21-30 students)
p318
aF3.61
aI64
aI19
aI5
aI1
aI1
aI12
aVHybinette, Ingrid E M
p319
aVSmall (10-20 students)
p320
aF3.91
aI83
aI8
aI0
aI0
aI0
aI0
atp321
bsS'CS 6035'
p322
g2
(g3
(I0
tp323
g5
tp324
Rp325
(I1
(I5
I9
tp326
g12
I01
(lp327
g254
ag255
aF3.64
aI39
aI28
aI2
aI0
aI0
aI31
ag256
ag257
aF3.43
aI47
aI29
aI5
aI0
aI3
aI8
ag258
ag259
aF3.69
aI68
aI22
aI3
aI0
aI0
aI7
ag260
ag255
aF3.93
aI89
aI6
aI0
aI0
aI0
aI3
ag261
ag257
aF4.0
aI93
aI0
aI0
aI0
aI0
aI0
atp328
bsS'CS 7641'
p329
g2
(g3
(I0
tp330
g5
tp331
Rp332
(I1
(I6
I9
tp333
g12
I01
(lp334
VDellaert, Frank
p335
aVMid-Size (21-30 Students)
p336
aF3.71
aI48
aI20
aI0
aI0
aI0
aI20
aVIsbell Jr, Charles Lee
p337
aVLarge (31-49 Students)
p338
aF3.6
aI52
aI26
aI2
aI1
aI0
aI15
aVLevanon, Guy
p339
aVVery Large (50 Students or More)
p340
aF2.96
aI41
aI17
aI17
aI9
aI3
aI7
aVMappus, Rudolph L
p341
ag336
aF3.65
aI48
aI26
aI0
aI0
aI0
aI13
aVSong, Le
p342
ag336
aF3.62
aI58
aI25
aI5
aI0
aI0
aI6
aVZha, Hongyuan
p343
aVSmall (10-20 Students)
p344
aF3.48
aI51
aI46
aI3
aI0
aI0
aI0
atp345
bsS'CS 7646'
p346
g2
(g3
(I0
tp347
g5
tp348
Rp349
(I1
(I2
I9
tp350
g12
I01
(lp351
g306
ag307
aF3.88
aI83
aI6
aI2
aI0
aI0
aI1
ag308
ag309
aF3.81
aI70
aI7
aI4
aI0
aI0
aI7
atp352
bsS'CS 6475'
p353
g2
(g3
(I0
tp354
g5
tp355
Rp356
(I1
(I2
I9
tp357
g12
I01
(lp358
g317
ag318
aF3.61
aI64
aI19
aI5
aI1
aI1
aI12
ag319
ag320
aF3.91
aI83
aI8
aI0
aI0
aI0
aI0
atp359
bsS'CS 6300'
p360
g2
(g3
(I0
tp361
g5
tp362
Rp363
(I1
(I5
I9
tp364
g12
I01
(lp365
VHarrold, Mary Jean
p366
aVLarge (31-49 Students)
p367
aF3.6
aI55
aI33
aI2
aI0
aI0
aI4
aVMcCracken, W Michael
p368
aVSmall (10-20 Students)
p369
aF3.83
aI83
aI17
aI0
aI0
aI0
aI0
aVOrso, Alessandro
p370
aVVery Large (50 Students or More)
p371
aF3.57
aI65
aI22
aI6
aI1
aI1
aI5
aVPotts, Colin
p372
ag367
aF3.87
aI85
aI13
aI0
aI0
aI0
aI2
aVRugaber, Jon Spencer
p373
aVMid-Size (21-30 Students)
p374
aF3.4
aI43
aI41
aI4
aI0
aI1
aI8
atp375
bsS'CS 6262'
p376
g2
(g3
(I0
tp377
g5
tp378
Rp379
(I1
(I7
I9
tp380
g12
I01
(lp381
VBarlow, David A
p382
aVSmall (10-20 students)
p383
aF3.72
aI72
aI28
aI0
aI0
aI0
aI0
aVFeamster, Nicholas G
p384
aVLarge (31-49 Students)
p385
aF3.4
aI53
aI22
aI11
aI0
aI2
aI4
aVGiffin, Jonathon Thomas
p386
aVVery Large (50 Students or More)
p387
aF3.57
aI63
aI27
aI6
aI1
aI0
aI2
aVLee, Wenke
p388
aVMid-Size (21-30 Students)
p389
aF3.77
aI70
aI20
aI0
aI0
aI0
aI5
aVOwen III, Henry L
p390
aVSmall (10-20 Students)
p391
aF3.41
aI44
aI51
aI4
aI0
aI0
aI2
aVTraynor, Patrick Gerard
p392
ag387
aF3.37
aI45
aI26
aI10
aI1
aI1
aI14
aVXu, Jun
p393
ag391
aF3.57
aI53
aI40
aI0
aI0
aI0
aI7
atp394
bsS'CSE 6220'
p395
g2
(g3
(I0
tp396
g5
tp397
Rp398
(I1
(I5
I9
tp399
g12
I01
(lp400
g254
ag255
aF3.64
aI39
aI28
aI2
aI0
aI0
aI31
ag256
ag257
aF3.43
aI47
aI29
aI5
aI0
aI3
aI8
ag258
ag259
aF3.69
aI68
aI22
aI3
aI0
aI0
aI7
ag260
ag255
aF3.93
aI89
aI6
aI0
aI0
aI0
aI3
ag261
ag257
aF4.0
aI93
aI0
aI0
aI0
aI0
aI0
atp401
bsS'CS 6290'
p402
g2
(g3
(I0
tp403
g5
tp404
Rp405
(I1
(I12
I9
tp406
g12
I01
(lp407
VConte, Thomas M.
p408
aVLarge (31-49 Students)
p409
aF3.62
aI60
aI27
aI1
aI0
aI1
aI4
aVConte, Thomas Martin
p410
aVVery Large (50 Students or More)
p411
aF3.35
aI51
aI27
aI13
aI0
aI2
aI6
aVEsmaeilzadeh, Hadi
p412
aVMid-size (21-30 students)
p413
aF3.69
aI41
aI18
aI0
aI0
aI0
aI14
aVKim, Hyesoon
p414
ag411
aF3.34
aI47
aI32
aI14
aI0
aI1
aI4
aVKim, Jongman
p415
aVVery Small (Fewer than 10 Students)
p416
aF4.0
aI50
aI0
aI0
aI0
aI0
aI50
aVLoh, Gabriel H
p417
ag409
aF3.2
aI42
aI43
aI4
aI0
aI7
aI2
aVMackenzie, Kenneth M
p418
aVSmall (10-20 Students)
p419
aF3.63
aI67
aI25
aI5
aI0
aI0
aI2
aVNiemier, Michael Thaddeus
p420
ag409
aF3.31
aI45
aI39
aI9
aI0
aI2
aI2
aVPrvulovic, Milos
p421
ag409
aF3.06
aI39
aI28
aI12
aI4
aI4
aI12
aVQureshi, Moinuddin K
p422
ag416
aF3.13
aI38
aI31
aI29
aI0
aI0
aI3
aVRailing, Brian Paul
p423
aVVery Small (Fewer than 10 students)
p424
aF3.58
aI31
aI22
aI0
aI0
aI0
aI28
aVRailing,Brian Paul
p425
ag424
aF3.5
aI25
aI25
aI0
aI0
aI0
aI38
atp426
bsS'CS 6340'
p427
g2
(g3
(I0
tp428
g5
tp429
Rp430
(I1
(I2
I9
tp431
g12
I01
(lp432
VHarrold, Mary Jean
p433
aVMid-Size (21-30 Students)
p434
aF3.66
aI65
aI27
aI3
aI0
aI0
aI4
aVNaik, Mayur Hiru
p435
aVLarge (31-49 Students)
p436
aF3.24
aI40
aI31
aI9
aI3
aI2
aI17
atp437
bs.