(dp0
S'CS 6250'
p1
(lp2
(lp3
VAmmar, Mostafa H
p4
aVVery Large (50 Students or More)
p5
aF3.96
aI95
aI3
aI0
aI0
aI0
aI1
aa(lp6
VClark, Russell J
p7
aVVery Small (Fewer than 10 Students)
p8
aF3.67
aI67
aI33
aI0
aI0
aI0
aI0
aa(lp9
VDovrolis, Konstantinos
p10
aVLarge (31-49 Students)
p11
aF3.62
aI64
aI24
aI5
aI1
aI0
aI6
aa(lp12
VFeamster, Nicholas G
p13
ag5
aF3.74
aI71
aI13
aI4
aI0
aI1
aI10
aa(lp14
VHutchins, Ronald R
p15
aVSmall (10-20 students)
p16
aF3.9
aI92
aI6
aI1
aI0
aI1
aI1
aa(lp17
VLillethun, David J
p18
aVVery Large (50 students or more)
p19
aF3.68
aI73
aI8
aI1
aI1
aI3
aI13
aa(lp20
VMckinnon, Martin W
p21
ag11
aF3.44
aI41
aI45
aI2
aI0
aI0
aI5
aa(lp22
VXu, Jun
p23
ag5
aF3.43
aI52
aI33
aI9
aI1
aI1
aI3
aa(lp24
VZegura, Ellen
p25
ag5
aF3.46
aI48
aI50
aI2
aI0
aI0
aI0
aasS'CS 6505'
p26
(lp27
(lp28
VApostolico, Alberto
p29
aVMid-Size (21-30 Students)
p30
aF2.24
aI17
aI24
aI41
aI0
aI17
aI0
aa(lp31
VBader, David Albert
p32
aVLarge (31-49 Students)
p33
aF3.2
aI41
aI31
aI15
aI0
aI3
aI8
aa(lp34
VBasu, Saugata
p35
ag33
aF3.63
aI56
aI33
aI0
aI0
aI0
aI8
aa(lp36
VBrubaker, Spencer C
p37
aVVery Large (50 students or more)
p38
aF2.94
aI24
aI16
aI6
aI4
aI4
aI45
aa(lp39
VDing, Yan
p40
ag33
aF3.35
aI50
aI33
aI13
aI0
aI2
aI3
aa(lp41
VLipton, Richard
p42
aVVery Large (50 Students or More)
p43
aF3.82
aI80
aI15
aI2
aI0
aI0
aI3
aa(lp44
VMihail, Kalomire-Eleni
p45
ag38
aF3.71
aI72
aI23
aI2
aI0
aI0
aI2
aa(lp46
VVempala, Santosh Srinivas
p47
ag43
aF3.48
aI48
aI30
aI5
aI1
aI1
aI13
aa(lp48
VVenkateswaran, H
p49
ag43
aF3.37
aI45
aI36
aI9
aI1
aI0
aI6
aasS'CS 6601'
p50
(lp51
(lp52
VDellaert, Frank
p53
aVLarge (31-49 Students)
p54
aF3.56
aI64
aI17
aI12
aI0
aI0
aI2
aa(lp55
VGoel, Ashok K
p56
ag54
aF3.52
aI54
aI26
aI6
aI1
aI1
aI7
aa(lp57
VStarner, Thad E
p58
ag54
aF3.46
aI54
aI28
aI6
aI1
aI1
aI7
aa(lp59
VZha, Hongyuan
p60
aVVery Small (Fewer than 10 Students)
p61
aF3.96
aI96
aI4
aI0
aI0
aI0
aI0
aasS'CS 6460'
p62
(lp63
(lp64
VDesportes, Kayla Surry
p65
aVVery Small (Fewer than 10 students)
p66
aF4.0
aI100
aI0
aI0
aI0
aI0
aI0
aa(lp67
VDisalvo, Elizabeth Nora
p68
aVSmall (10-20 students)
p69
aF3.95
aI94
aI5
aI0
aI0
aI0
aI0
aa(lp70
VGuzdial, Mark
p71
aVSmall (10-20 Students)
p72
aF4.0
aI72
aI0
aI0
aI0
aI0
aI4
aa(lp73
VKolodner, Janet L
p74
ag72
aF3.7
aI66
aI22
aI3
aI0
aI0
aI6
aasS'CS 8803'
p75
(lp76
(lp77
VAbowd, Gregory D
p78
aVVery Small (Fewer than 10 Students)
p79
aF3.44
aI54
aI20
aI5
aI5
aI0
aI7
aa(lp80
VAhamad, Mustaque
p81
aVSmall (10-20 Students)
p82
aF3.72
aI69
aI21
aI3
aI0
aI0
aI6
aa(lp83
VAmmar, Mostafa H
p84
aVMid-Size (21-30 Students)
p85
aF3.94
aI80
aI6
aI0
aI0
aI0
aI0
aa(lp86
VAnderson, Carl
p87
ag79
aF3.5
aI33
aI33
aI0
aI0
aI0
aI0
aa(lp88
VAnton, Ana I
p89
aVVery Small (Fewer than 10 students)
p90
aF3.95
aI95
aI5
aI0
aI0
aI0
aI0
aa(lp91
VApostolico, Alberto
p92
ag82
aF3.15
aI25
aI35
aI0
aI0
aI5
aI15
aa(lp93
VBader, David Albert
p94
aVVery Large (50 Students or More)
p95
aF3.6
aI66
aI18
aI2
aI0
aI3
aI2
aa(lp96
VBadre, Albert N
p97
ag82
aF3.93
aI92
aI2
aI0
aI0
aI1
aI5
aa(lp98
VBalcan, Maria-Florina
p99
ag85
aF3.89
aI67
aI8
aI0
aI0
aI0
aI2
aa(lp100
VBalch, Tucker R
p101
ag79
aF3.88
aI90
aI5
aI0
aI1
aI1
aI1
aa(lp102
VBarlow, David A
p103
aVSmall (10-20 students)
p104
aF4.0
aI100
aI0
aI0
aI0
aI0
aI0
aa(lp105
VBasole, Rahul
p106
ag79
aF4.0
aI100
aI0
aI0
aI0
aI0
aI0
aa(lp107
VBasole, Rahul C
p108
ag90
aF4.0
aI88
aI0
aI0
aI0
aI0
aI0
aa(lp109
VBest, Michael L
p110
ag82
aF3.76
aI69
aI24
aI0
aI0
aI0
aI7
aa(lp111
VBiggers, Maureen S
p112
aVLarge (31-49 Students)
p113
aF3.66
aI64
aI33
aI0
aI0
aI0
aI0
aa(lp114
VBobick, Aaron
p115
ag82
aF3.44
aI44
aI19
aI0
aI0
aI4
aI3
aa(lp116
VBogost, Ian S
p117
ag79
aF4.0
aI100
aI0
aI0
aI0
aI0
aI0
aa(lp118
VBolter, Jay D
p119
ag82
aF4.0
aI95
aI0
aI0
aI0
aI0
aI5
aa(lp120
VBoots, Byron Emereth
p121
aVMid-size (21-30 students)
p122
aF3.78
aI65
aI9
aI4
aI0
aI0
aI13
aa(lp123
VBraunstein, Mark L
p124
ag82
aF3.98
aI87
aI2
aI0
aI0
aI0
aI3
aa(lp125
VBurnham, Blaine Windsor
p126
ag79
aF4.0
aI56
aI0
aI0
aI0
aI0
aI0
aa(lp127
VChoi, Myung C
p128
ag82
aF3.76
aI68
aI22
aI0
aI0
aI0
aI3
aa(lp129
VChristensen, Henrik Iskov
p130
ag82
aF3.86
aI76
aI11
aI1
aI0
aI0
aI6
aa(lp131
VClark, Nathan Thomas
p132
ag85
aF3.84
aI73
aI11
aI2
aI0
aI0
aI0
aa(lp133
VClark, Russell J
p134
ag113
aF3.86
aI81
aI11
aI1
aI0
aI0
aI3
aa(lp135
VClark,Russell J
p136
ag82
aF3.92
aI86
aI7
aI0
aI0
aI0
aI7
aa(lp137
VColeman, Maribeth Gandy
p138
ag79
aF3.8
aI72
aI6
aI2
aI2
aI0
aI3
aa(lp139
VConte, Thomas Martin
p140
ag95
aF3.52
aI42
aI28
aI3
aI0
aI0
aI2
aa(lp141
VCooper, Brian Frank
p142
ag82
aF3.93
aI70
aI5
aI0
aI0
aI0
aI5
aa(lp143
VCopeland, John A
p144
ag82
aF3.8
aI75
aI19
aI0
aI0
aI0
aI6
aa(lp145
VDellaert, Frank
p146
ag82
aF3.53
aI50
aI32
aI3
aI0
aI0
aI3
aa(lp147
VDeMillo, Richard A
p148
ag82
aF3.6
aI55
aI36
aI0
aI0
aI0
aI9
aa(lp149
VDing, Yan
p150
ag82
aF3.64
aI60
aI22
aI4
aI0
aI0
aI7
aa(lp151
VDo, Yi-Luen Ellen
p152
ag79
aF4.0
aI94
aI0
aI0
aI0
aI0
aI2
aa(lp153
VDos Santos, Andre L
p154
ag85
aF3.78
aI78
aI4
aI0
aI4
aI0
aI8
aa(lp155
VDovrolis, Konstantinos
p156
ag85
aF3.93
aI81
aI6
aI0
aI0
aI0
aI0
aa(lp157
VEason, William Thomas
p158
ag104
aF3.92
aI73
aI7
aI0
aI0
aI0
aI7
aa(lp159
VEisenstein, Jacob R
p160
ag104
aF3.66
aI59
aI30
aI0
aI0
aI0
aI7
aa(lp161
VEndert, Alexander
p162
ag104
aF3.86
aI71
aI12
aI0
aI0
aI0
aI6
aa(lp163
VEnslow Jr, Philip H
p164
ag79
aF3.9
aI85
aI10
aI0
aI0
aI0
aI0
aa(lp165
VEsmaeilzadeh, Hadi
p166
ag122
aF3.81
aI68
aI16
aI0
aI0
aI0
aI0
aa(lp167
VEssa, Irfan A
p168
ag79
aF3.92
aI81
aI5
aI1
aI0
aI0
aI8
aa(lp169
VFeamster, Nicholas G
p170
ag113
aF4.0
aI94
aI0
aI0
aI0
aI0
aI3
aa(lp171
VFortnow, Lance Jeremy
p172
ag90
aF3.89
aI80
aI10
aI0
aI0
aI0
aI10
aa(lp173
VFujimoto, Richard M
p174
ag79
aF3.81
aI80
aI11
aI2
aI0
aI0
aI4
aa(lp175
VGavrilovska Habl, Ada
p176
ag79
aF3.61
aI51
aI19
aI2
aI0
aI1
aI17
aa(lp177
VGiffin, Jonathon Thomas
p178
ag82
aF3.66
aI68
aI15
aI2
aI4
aI0
aI1
aa(lp179
VGilbert, Eric E
p180
ag85
aF3.77
aI76
aI16
aI0
aI0
aI2
aI1
aa(lp181
VGoel, Ashok K
p182
ag85
aF3.77
aI75
aI16
aI2
aI0
aI0
aI3
aa(lp183
VGray, Alexander G
p184
ag113
aF3.98
aI61
aI1
aI0
aI0
aI0
aI8
aa(lp185
VGuzdial, Mark
p186
ag79
aF4.0
aI75
aI0
aI0
aI0
aI0
aI0
aa(lp187
VHarris, William R
p188
ag104
aF4.0
aI54
aI0
aI0
aI0
aI0
aI0
aa(lp189
VHarrold, Mary Jean
p190
ag79
aF3.66
aI67
aI10
aI12
aI0
aI0
aI7
aa(lp191
VHunter, Michael T
p192
ag79
aF4.0
aI100
aI0
aI0
aI0
aI0
aI0
aa(lp193
VHutchins, Ronald R
p194
ag104
aF3.94
aI94
aI6
aI0
aI0
aI0
aI0
aa(lp195
VIsbell Jr, Charles Lee
p196
ag79
aF3.83
aI77
aI14
aI0
aI0
aI0
aI7
aa(lp197
VIwanska, Lucja M
p198
ag82
aF3.58
aI67
aI7
aI0
aI0
aI7
aI20
aa(lp199
VJackson, Melody Moore
p200
ag79
aF4.0
aI100
aI0
aI0
aI0
aI0
aI0
aa(lp201
VJain, Ramesh C
p202
ag82
aF3.69
aI65
aI17
aI4
aI0
aI0
aI0
aa(lp203
VJayant, Nikil S
p204
ag82
aF3.83
aI71
aI14
aI0
aI0
aI0
aI14
aa(lp205
VKalai, Adam
p206
ag113
aF4.0
aI70
aI0
aI0
aI0
aI0
aI9
aa(lp207
VKalai, Yael T
p208
ag82
aF3.6
aI40
aI27
aI0
aI0
aI0
aI13
aa(lp209
VKim, Hyesoon
p210
ag113
aF3.76
aI62
aI18
aI1
aI0
aI0
aI0
aa(lp211
VKira, Zsolt
p212
aVLarge (31-49 students)
p213
aF3.59
aI55
aI28
aI4
aI0
aI0
aI4
aa(lp214
VKoenig, Sven
p215
ag82
aF4.0
aI57
aI0
aI0
aI0
aI0
aI7
aa(lp216
VKolodner, Janet L
p217
ag82
aF3.74
aI46
aI14
aI0
aI0
aI0
aI14
aa(lp218
VKumar, Rajnish
p219
ag85
aF3.64
aI68
aI28
aI4
aI0
aI0
aI0
aa(lp220
VLanterman, Aaron D
p221
ag90
aF3.88
aI80
aI10
aI0
aI0
aI0
aI0
aa(lp222
VLee, Wenke
p223
ag82
aF3.78
aI80
aI10
aI0
aI0
aI3
aI0
aa(lp224
VLim, Sung-Kyu
p225
ag82
aF3.75
aI76
aI22
aI1
aI0
aI0
aI0
aa(lp226
VLipkin, Harvey
p227
ag82
aF3.46
aI40
aI37
aI0
aI0
aI0
aI23
aa(lp228
VLipton, Richard
p229
ag82
aF4.0
aI82
aI0
aI0
aI0
aI0
aI0
aa(lp230
VLiu, Cheng-Yun Karen
p231
ag82
aF3.96
aI73
aI4
aI0
aI0
aI0
aI8
aa(lp232
VLiu, Ling
p233
ag85
aF3.83
aI74
aI14
aI0
aI0
aI0
aI3
aa(lp234
VLoh, Gabriel H
p235
ag82
aF3.36
aI43
aI17
aI7
aI5
aI0
aI9
aa(lp236
VMacIntyre, Blair
p237
ag79
aF3.94
aI91
aI5
aI0
aI0
aI0
aI1
aa(lp238
VMackenzie, Kenneth M
p239
ag79
aF4.0
aI78
aI0
aI0
aI0
aI0
aI11
aa(lp240
VMagerko, Brian S
p241
ag79
aF3.55
aI56
aI42
aI2
aI0
aI0
aI0
aa(lp242
VManolios, Panagiotis
p243
ag79
aF3.34
aI36
aI21
aI5
aI3
aI0
aI1
aa(lp244
VMark, Leo
p245
ag85
aF3.64
aI64
aI36
aI0
aI0
aI0
aI0
aa(lp246
VMcCracken, W Michael
p247
ag79
aF4.0
aI100
aI0
aI0
aI0
aI0
aI0
aa(lp248
VMihail, Kalomire-Eleni
p249
ag79
aF4.0
aI82
aI0
aI0
aI0
aI0
aI13
aa(lp250
VMorton Jr, David Lindsay
p251
ag90
aF4.0
aI75
aI0
aI0
aI0
aI0
aI0
aa(lp252
VNagaraj Raghavendra, Prasad
p253
ag79
aF3.5
aI44
aI44
aI0
aI0
aI0
aI0
aa(lp254
VNaik, Mayur Hiru
p255
ag85
aF3.91
aI78
aI6
aI0
aI0
aI0
aI2
aa(lp256
VNelson-Palmer, Michael K
p257
ag82
aF3.74
aI71
aI15
aI3
aI0
aI0
aI8
aa(lp258
VNovick, David Graham
p259
ag79
aF3.0
aI60
aI20
aI0
aI0
aI20
aI0
aa(lp260
VO'Neill, Brian C
p261
ag79
aF3.0
aI0
aI100
aI0
aI0
aI0
aI0
aa(lp262
VOmiecinski, Edward R
p263
ag82
aF3.68
aI68
aI24
aI3
aI0
aI0
aI2
aa(lp264
VOrso, Alessandro
p265
ag85
aF3.5
aI48
aI34
aI4
aI0
aI0
aI0
aa(lp266
VPalem, Krishna
p267
ag79
aF3.5
aI46
aI38
aI0
aI0
aI0
aI0
aa(lp268
VPande, Santosh
p269
ag79
aF3.16
aI42
aI20
aI6
aI4
aI6
aI13
aa(lp270
VPark, Haesun
p271
ag85
aF3.38
aI31
aI51
aI0
aI1
aI0
aI8
aa(lp272
VPeikert, Christopher Jason
p273
ag82
aF3.72
aI68
aI13
aI3
aI2
aI0
aI2
aa(lp274
VPerkins, William F
p275
ag79
aF4.0
aI100
aI0
aI0
aI0
aI0
aI0
aa(lp276
VPierce, Jeffrey S
p277
ag82
aF3.89
aI89
aI11
aI0
aI0
aI0
aI0
aa(lp278
VPiliouras, Georgios
p279
ag90
aF4.0
aI100
aI0
aI0
aI0
aI0
aI0
aa(lp280
VPippin, Charles Everett
p281
ag104
aF3.67
aI36
aI18
aI0
aI0
aI0
aI18
aa(lp282
VPrvulovic, Milos
p283
ag82
aF3.94
aI73
aI4
aI0
aI0
aI0
aI0
aa(lp284
VPu, Calton
p285
ag79
aF3.84
aI76
aI3
aI1
aI0
aI1
aI1
aa(lp286
VRam, Ashwin
p287
ag82
aF3.8
aI75
aI7
aI4
aI0
aI0
aI7
aa(lp288
VRamachandran, Umakishore
p289
ag82
aF3.82
aI66
aI13
aI0
aI0
aI0
aI0
aa(lp290
VRandall, Dana
p291
ag82
aF3.91
aI81
aI8
aI0
aI0
aI0
aI0
aa(lp292
VRehg, James Matthew
p293
ag113
aF3.92
aI82
aI6
aI1
aI0
aI0
aI4
aa(lp294
VRiedl, Mark O
p295
ag82
aF3.68
aI71
aI15
aI8
aI0
aI0
aI1
aa(lp296
VRossignac, Jaroslaw R
p297
ag79
aF3.67
aI57
aI29
aI0
aI0
aI0
aI0
aa(lp298
VRouse, William
p299
ag82
aF3.42
aI31
aI44
aI0
aI0
aI0
aI0
aa(lp300
VSalomone, Michael D
p301
ag79
aF4.0
aI100
aI0
aI0
aI0
aI0
aI0
aa(lp302
VSaltz, Joel H
p303
ag82
aF4.0
aI77
aI0
aI0
aI0
aI0
aI0
aa(lp304
VSanders, Matthew J
p305
ag104
aF3.63
aI50
aI30
aI0
aI0
aI0
aI0
aa(lp306
VSchindler, Grant Evan
p307
ag79
aF4.0
aI100
aI0
aI0
aI0
aI0
aI0
aa(lp308
VShivers, Olin
p309
ag82
aF3.55
aI54
aI25
aI7
aI0
aI0
aI0
aa(lp310
VSmaragdakis, Ioannis
p311
ag79
aF3.78
aI64
aI10
aI1
aI1
aI0
aI0
aa(lp312
VStarner, Thad E
p313
ag82
aF3.43
aI55
aI0
aI0
aI0
aI9
aI27
aa(lp314
VStilman, Michael
p315
ag82
aF3.83
aI80
aI17
aI0
aI0
aI0
aI2
aa(lp316
VSubramanian, Mani M
p317
ag82
aF3.37
aI44
aI40
aI7
aI2
aI0
aI5
aa(lp318
VSzymczak, Andrzej
p319
ag82
aF4.0
aI87
aI0
aI0
aI0
aI0
aI4
aa(lp320
VTetali, Prasad
p321
ag79
aF4.0
aI67
aI0
aI0
aI0
aI0
aI11
aa(lp322
VThomaz, Andrea Lockerd
p323
ag82
aF3.93
aI82
aI6
aI0
aI0
aI0
aI2
aa(lp324
VThrun, Sebastian
p325
aVVery Large (50 students or more)
p326
aF3.52
aI67
aI16
aI5
aI2
aI4
aI7
aa(lp327
VTodd, Robert Lynch
p328
ag79
aF3.88
aI84
aI12
aI0
aI0
aI0
aI0
aa(lp329
VTraynor, Patrick Gerard
p330
ag82
aF3.43
aI50
aI28
aI0
aI7
aI0
aI2
aa(lp331
VTurk, Gregory
p332
ag79
aF3.89
aI84
aI9
aI0
aI0
aI0
aI1
aa(lp333
VUrban, Stephen Montgomery
p334
ag90
aF4.0
aI100
aI0
aI0
aI0
aI0
aI0
aa(lp335
VUrban,Stephen Montgomery
p336
ag90
aF4.0
aI100
aI0
aI0
aI0
aI0
aI0
aa(lp337
VVazirani, Vijay V
p338
ag82
aF4.0
aI89
aI0
aI0
aI0
aI0
aI3
aa(lp339
VVegh, Laszlo
p340
ag79
aF4.0
aI67
aI0
aI0
aI0
aI0
aI0
aa(lp341
VVempala, Santosh Srinivas
p342
ag113
aF3.62
aI54
aI15
aI3
aI0
aI1
aI7
aa(lp343
VVenkateswaran, H
p344
ag113
aF3.61
aI60
aI23
aI7
aI0
aI0
aI10
aa(lp345
VVigoda, Eric Joseph
p346
ag82
aF4.0
aI58
aI0
aI0
aI0
aI0
aI5
aa(lp347
VVuduc, Richard Wilson
p348
ag82
aF3.89
aI73
aI10
aI0
aI0
aI0
aI5
aa(lp349
VWagner, Alan Richard
p350
ag90
aF4.0
aI67
aI0
aI0
aI0
aI0
aI0
aa(lp351
VWalker, Bruce N
p352
ag79
aF4.0
aI100
aI0
aI0
aI0
aI0
aI0
aa(lp353
VWhite, David Randall
p354
ag79
aF3.92
aI92
aI9
aI0
aI0
aI0
aI0
aa(lp355
VWilson, Jeffrey B
p356
ag82
aF3.7
aI69
aI27
aI0
aI0
aI0
aI3
aa(lp357
VXu, Jun
p358
ag79
aF4.0
aI73
aI0
aI0
aI0
aI0
aI10
aa(lp359
VZajic, Alenka
p360
ag79
aF3.83
aI71
aI14
aI0
aI0
aI0
aI0
aa(lp361
VZegura, Ellen
p362
ag85
aF3.87
aI60
aI8
aI0
aI0
aI0
aI4
aa(lp363
VZha, Hongyuan
p364
ag85
aF3.58
aI51
aI37
aI0
aI0
aI0
aI2
aa(lp365
VZiegler, Andrew Moore
p366
ag90
aF4.0
aI100
aI0
aI0
aI0
aI0
aI0
aa(lp367
VZiegler,Andrew Moore
p368
ag90
aF4.0
aI100
aI0
aI0
aI0
aI0
aI0
aasS'CS 6310'
p369
(lp370
(lp371
VFeron, Eric Marie J
p372
aVVery Large (50 students or more)
p373
aF3.49
aI43
aI21
aI3
aI0
aI2
aI31
aa(lp374
VMoss, Mark Bomi
p375
ag373
aF3.5
aI33
aI22
aI3
aI0
aI0
aI41
aa(lp376
VRugaber, Jon Spencer
p377
aVSmall (10-20 Students)
p378
aF3.45
aI46
aI36
aI4
aI0
aI0
aI11
aasS'CS 6210'
p379
(lp380
(lp381
VAhamad, Mustaque
p382
aVVery Small (Fewer than 10 students)
p383
aF3.64
aI39
aI28
aI2
aI0
aI0
aI31
aa(lp384
VGiffin, Jonathon Thomas
p385
aVVery Small (Fewer than 10 Students)
p386
aF3.43
aI47
aI29
aI5
aI0
aI3
aI8
aa(lp387
VLee, Wenke
p388
aVVery Large (50 students or more)
p389
aF3.69
aI68
aI22
aI3
aI0
aI0
aI7
aa(lp390
VOdom, Joel Van
p391
ag383
aF3.93
aI89
aI6
aI0
aI0
aI0
aI3
aa(lp392
VPhillips JR, Charles Edward
p393
ag386
aF4.0
aI93
aI0
aI0
aI0
aI0
aI0
aasS'CS 7637'
p394
(lp395
(lp396
VGoel, Ashok K
p397
aVSmall (10-20 Students)
p398
aF3.75
aI70
aI9
aI4
aI0
aI1
aI12
aa(lp399
VJoyner, David Andrew
p400
aVVery Large (50 students or more)
p401
aF3.57
aI56
aI18
aI2
aI1
aI3
aI21
aasS'CSE 6242'
p402
(lp403
(lp404
g382
ag383
aF3.64
aI39
aI28
aI2
aI0
aI0
aI31
aa(lp405
g385
ag386
aF3.43
aI47
aI29
aI5
aI0
aI3
aI8
aa(lp406
g388
ag389
aF3.69
aI68
aI22
aI3
aI0
aI0
aI7
aa(lp407
g391
ag383
aF3.93
aI89
aI6
aI0
aI0
aI0
aI3
aa(lp408
g393
ag386
aF4.0
aI93
aI0
aI0
aI0
aI0
aI0
aasS'CS 6400'
p409
(lp410
(lp411
VNavathe, Shamkant B
p412
aVLarge (31-49 Students)
p413
aF3.51
aI48
aI41
aI1
aI0
aI0
aI5
aa(lp414
VOmiecinski, Edward R
p415
ag413
aF3.28
aI44
aI36
aI10
aI2
aI1
aI4
aasS'CS 6440'
p416
(lp417
(lp418
VBraunstein, Mark L
p419
aVSmall (10-20 Students)
p420
aF3.94
aI86
aI6
aI0
aI0
aI0
aI4
aasS'CSE 8803 Special Topics'
p421
(lp422
(lp423
VBalch, Tucker R
p424
aVVery Large (50 Students or More)
p425
aF3.88
aI83
aI6
aI2
aI0
aI0
aI1
aa(lp426
VByrd, Charles David
p427
aVLarge (31-49 students)
p428
aF3.81
aI70
aI7
aI4
aI0
aI0
aI7
aasS'CS 4495'
p429
(lp430
(lp431
VEssa, Irfan A
p432
aVMid-size (21-30 students)
p433
aF3.61
aI64
aI19
aI5
aI1
aI1
aI12
aa(lp434
VHybinette, Ingrid E M
p435
aVSmall (10-20 students)
p436
aF3.91
aI83
aI8
aI0
aI0
aI0
aI0
aasS'CS 6035'
p437
(lp438
(lp439
g382
ag383
aF3.64
aI39
aI28
aI2
aI0
aI0
aI31
aa(lp440
g385
ag386
aF3.43
aI47
aI29
aI5
aI0
aI3
aI8
aa(lp441
g388
ag389
aF3.69
aI68
aI22
aI3
aI0
aI0
aI7
aa(lp442
g391
ag383
aF3.93
aI89
aI6
aI0
aI0
aI0
aI3
aa(lp443
g393
ag386
aF4.0
aI93
aI0
aI0
aI0
aI0
aI0
aasS'CS 7641'
p444
(lp445
(lp446
VDellaert, Frank
p447
aVMid-Size (21-30 Students)
p448
aF3.71
aI48
aI20
aI0
aI0
aI0
aI20
aa(lp449
VIsbell Jr, Charles Lee
p450
aVLarge (31-49 Students)
p451
aF3.6
aI52
aI26
aI2
aI1
aI0
aI15
aa(lp452
VLevanon, Guy
p453
aVVery Large (50 Students or More)
p454
aF2.96
aI41
aI17
aI17
aI9
aI3
aI7
aa(lp455
VMappus, Rudolph L
p456
ag448
aF3.65
aI48
aI26
aI0
aI0
aI0
aI13
aa(lp457
VSong, Le
p458
ag448
aF3.62
aI58
aI25
aI5
aI0
aI0
aI6
aa(lp459
VZha, Hongyuan
p460
aVSmall (10-20 Students)
p461
aF3.48
aI51
aI46
aI3
aI0
aI0
aI0
aasS'CS 7646'
p462
(lp463
(lp464
g424
ag425
aF3.88
aI83
aI6
aI2
aI0
aI0
aI1
aa(lp465
g427
ag428
aF3.81
aI70
aI7
aI4
aI0
aI0
aI7
aasS'CS 6475'
p466
(lp467
(lp468
g432
ag433
aF3.61
aI64
aI19
aI5
aI1
aI1
aI12
aa(lp469
g435
ag436
aF3.91
aI83
aI8
aI0
aI0
aI0
aI0
aasS'CS 6300'
p470
(lp471
(lp472
VHarrold, Mary Jean
p473
aVLarge (31-49 Students)
p474
aF3.6
aI55
aI33
aI2
aI0
aI0
aI4
aa(lp475
VMcCracken, W Michael
p476
aVSmall (10-20 Students)
p477
aF3.83
aI83
aI17
aI0
aI0
aI0
aI0
aa(lp478
VOrso, Alessandro
p479
aVVery Large (50 Students or More)
p480
aF3.57
aI65
aI22
aI6
aI1
aI1
aI5
aa(lp481
VPotts, Colin
p482
ag474
aF3.87
aI85
aI13
aI0
aI0
aI0
aI2
aa(lp483
VRugaber, Jon Spencer
p484
aVMid-Size (21-30 Students)
p485
aF3.4
aI43
aI41
aI4
aI0
aI1
aI8
aasS'CS 6262'
p486
(lp487
(lp488
VBarlow, David A
p489
aVSmall (10-20 students)
p490
aF3.72
aI72
aI28
aI0
aI0
aI0
aI0
aa(lp491
VFeamster, Nicholas G
p492
aVLarge (31-49 Students)
p493
aF3.4
aI53
aI22
aI11
aI0
aI2
aI4
aa(lp494
VGiffin, Jonathon Thomas
p495
aVVery Large (50 Students or More)
p496
aF3.57
aI63
aI27
aI6
aI1
aI0
aI2
aa(lp497
VLee, Wenke
p498
aVMid-Size (21-30 Students)
p499
aF3.77
aI70
aI20
aI0
aI0
aI0
aI5
aa(lp500
VOwen III, Henry L
p501
aVSmall (10-20 Students)
p502
aF3.41
aI44
aI51
aI4
aI0
aI0
aI2
aa(lp503
VTraynor, Patrick Gerard
p504
ag496
aF3.37
aI45
aI26
aI10
aI1
aI1
aI14
aa(lp505
VXu, Jun
p506
ag502
aF3.57
aI53
aI40
aI0
aI0
aI0
aI7
aasS'CSE 6220'
p507
(lp508
(lp509
g382
ag383
aF3.64
aI39
aI28
aI2
aI0
aI0
aI31
aa(lp510
g385
ag386
aF3.43
aI47
aI29
aI5
aI0
aI3
aI8
aa(lp511
g388
ag389
aF3.69
aI68
aI22
aI3
aI0
aI0
aI7
aa(lp512
g391
ag383
aF3.93
aI89
aI6
aI0
aI0
aI0
aI3
aa(lp513
g393
ag386
aF4.0
aI93
aI0
aI0
aI0
aI0
aI0
aasS'CS 6290'
p514
(lp515
(lp516
VConte, Thomas M.
p517
aVLarge (31-49 Students)
p518
aF3.62
aI60
aI27
aI1
aI0
aI1
aI4
aa(lp519
VConte, Thomas Martin
p520
aVVery Large (50 Students or More)
p521
aF3.35
aI51
aI27
aI13
aI0
aI2
aI6
aa(lp522
VEsmaeilzadeh, Hadi
p523
aVMid-size (21-30 students)
p524
aF3.69
aI41
aI18
aI0
aI0
aI0
aI14
aa(lp525
VKim, Hyesoon
p526
ag521
aF3.34
aI47
aI32
aI14
aI0
aI1
aI4
aa(lp527
VKim, Jongman
p528
aVVery Small (Fewer than 10 Students)
p529
aF4.0
aI50
aI0
aI0
aI0
aI0
aI50
aa(lp530
VLoh, Gabriel H
p531
ag518
aF3.2
aI42
aI43
aI4
aI0
aI7
aI2
aa(lp532
VMackenzie, Kenneth M
p533
aVSmall (10-20 Students)
p534
aF3.63
aI67
aI25
aI5
aI0
aI0
aI2
aa(lp535
VNiemier, Michael Thaddeus
p536
ag518
aF3.31
aI45
aI39
aI9
aI0
aI2
aI2
aa(lp537
VPrvulovic, Milos
p538
ag518
aF3.06
aI39
aI28
aI12
aI4
aI4
aI12
aa(lp539
VQureshi, Moinuddin K
p540
ag529
aF3.13
aI38
aI31
aI29
aI0
aI0
aI3
aa(lp541
VRailing, Brian Paul
p542
aVVery Small (Fewer than 10 students)
p543
aF3.58
aI31
aI22
aI0
aI0
aI0
aI28
aa(lp544
VRailing,Brian Paul
p545
ag543
aF3.5
aI25
aI25
aI0
aI0
aI0
aI38
aasS'CS 6340'
p546
(lp547
(lp548
VHarrold, Mary Jean
p549
aVMid-Size (21-30 Students)
p550
aF3.66
aI65
aI27
aI3
aI0
aI0
aI4
aa(lp551
VNaik, Mayur Hiru
p552
aVLarge (31-49 Students)
p553
aF3.24
aI40
aI31
aI9
aI3
aI2
aI17
aas.